Archive member included because of file (symbol)

..\..\..\..\LTA_LIB\libbespoon_LTA_official.a(afc_filter.o)
                              ..\obj\module_api_radio.o (filter_get_alloc_Size)
..\..\..\..\LTA_LIB\libbespoon_LTA_official.a(live_threshold_adjustment.o)
                              ..\obj\module_api_radio.o (lta_compute_root_threshold_from_temperature)
..\..\..\..\LTA_LIB\libbespoon_LTA_official.a(memPool.o)
                              ..\..\..\..\LTA_LIB\libbespoon_LTA_official.a(afc_filter.o) (__alignedSizeof)
c:/program files (x86)/gnu tools arm embedded/4.8 2013q4/bin/../lib/gcc/arm-none-eabi/4.8.3/../../../../arm-none-eabi/lib/armv6-m\libm.a(lib_a-wf_log10.o)
                              ..\obj\module_api_sys.o (log10f)
c:/program files (x86)/gnu tools arm embedded/4.8 2013q4/bin/../lib/gcc/arm-none-eabi/4.8.3/../../../../arm-none-eabi/lib/armv6-m\libm.a(lib_a-ef_log10.o)
                              c:/program files (x86)/gnu tools arm embedded/4.8 2013q4/bin/../lib/gcc/arm-none-eabi/4.8.3/../../../../arm-none-eabi/lib/armv6-m\libm.a(lib_a-wf_log10.o) (__ieee754_log10f)
c:/program files (x86)/gnu tools arm embedded/4.8 2013q4/bin/../lib/gcc/arm-none-eabi/4.8.3/../../../../arm-none-eabi/lib/armv6-m\libm.a(lib_a-s_lib_ver.o)
                              c:/program files (x86)/gnu tools arm embedded/4.8 2013q4/bin/../lib/gcc/arm-none-eabi/4.8.3/../../../../arm-none-eabi/lib/armv6-m\libm.a(lib_a-wf_log10.o) (__fdlib_version)
c:/program files (x86)/gnu tools arm embedded/4.8 2013q4/bin/../lib/gcc/arm-none-eabi/4.8.3/../../../../arm-none-eabi/lib/armv6-m\libm.a(lib_a-s_matherr.o)
                              c:/program files (x86)/gnu tools arm embedded/4.8 2013q4/bin/../lib/gcc/arm-none-eabi/4.8.3/../../../../arm-none-eabi/lib/armv6-m\libm.a(lib_a-wf_log10.o) (matherr)
c:/program files (x86)/gnu tools arm embedded/4.8 2013q4/bin/../lib/gcc/arm-none-eabi/4.8.3/../../../../arm-none-eabi/lib/armv6-m\libm.a(lib_a-s_nan.o)
                              c:/program files (x86)/gnu tools arm embedded/4.8 2013q4/bin/../lib/gcc/arm-none-eabi/4.8.3/../../../../arm-none-eabi/lib/armv6-m\libm.a(lib_a-wf_log10.o) (nan)
c:/program files (x86)/gnu tools arm embedded/4.8 2013q4/bin/../lib/gcc/arm-none-eabi/4.8.3/../../../../arm-none-eabi/lib/armv6-m\libm.a(lib_a-sf_fpclassify.o)
                              c:/program files (x86)/gnu tools arm embedded/4.8 2013q4/bin/../lib/gcc/arm-none-eabi/4.8.3/../../../../arm-none-eabi/lib/armv6-m\libm.a(lib_a-wf_log10.o) (__fpclassifyf)
c:/program files (x86)/gnu tools arm embedded/4.8 2013q4/bin/../lib/gcc/arm-none-eabi/4.8.3/../../../../arm-none-eabi/lib/armv6-m\libm.a(lib_a-ef_log.o)
                              c:/program files (x86)/gnu tools arm embedded/4.8 2013q4/bin/../lib/gcc/arm-none-eabi/4.8.3/../../../../arm-none-eabi/lib/armv6-m\libm.a(lib_a-ef_log10.o) (__ieee754_logf)
c:/program files (x86)/gnu tools arm embedded/4.8 2013q4/bin/../lib/gcc/arm-none-eabi/4.8.3/armv6-m\libgcc.a(_thumb1_case_uqi.o)
                              ..\obj\stm32f0xx_rcc.o (__gnu_thumb1_case_uqi)
c:/program files (x86)/gnu tools arm embedded/4.8 2013q4/bin/../lib/gcc/arm-none-eabi/4.8.3/armv6-m\libgcc.a(_udivsi3.o)
                              ..\obj\stm32f0xx_rcc.o (__aeabi_uidiv)
c:/program files (x86)/gnu tools arm embedded/4.8 2013q4/bin/../lib/gcc/arm-none-eabi/4.8.3/armv6-m\libgcc.a(_divsi3.o)
                              ..\obj\ADC.o (__aeabi_idiv)
c:/program files (x86)/gnu tools arm embedded/4.8 2013q4/bin/../lib/gcc/arm-none-eabi/4.8.3/armv6-m\libgcc.a(_dvmd_tls.o)
                              c:/program files (x86)/gnu tools arm embedded/4.8 2013q4/bin/../lib/gcc/arm-none-eabi/4.8.3/armv6-m\libgcc.a(_udivsi3.o) (__aeabi_idiv0)
c:/program files (x86)/gnu tools arm embedded/4.8 2013q4/bin/../lib/gcc/arm-none-eabi/4.8.3/armv6-m\libgcc.a(_lshrdi3.o)
                              ..\obj\RTC.o (__aeabi_llsr)
c:/program files (x86)/gnu tools arm embedded/4.8 2013q4/bin/../lib/gcc/arm-none-eabi/4.8.3/armv6-m\libgcc.a(_ashldi3.o)
                              ..\obj\RTC.o (__aeabi_llsl)
c:/program files (x86)/gnu tools arm embedded/4.8 2013q4/bin/../lib/gcc/arm-none-eabi/4.8.3/armv6-m\libgcc.a(_arm_cmpsf2.o)
                              c:/program files (x86)/gnu tools arm embedded/4.8 2013q4/bin/../lib/gcc/arm-none-eabi/4.8.3/../../../../arm-none-eabi/lib/armv6-m\libm.a(lib_a-wf_log10.o) (__aeabi_fcmpeq)
c:/program files (x86)/gnu tools arm embedded/4.8 2013q4/bin/../lib/gcc/arm-none-eabi/4.8.3/armv6-m\libgcc.a(_aeabi_ldivmod.o)
                              ..\obj\osal_math.o (__aeabi_ldivmod)
c:/program files (x86)/gnu tools arm embedded/4.8 2013q4/bin/../lib/gcc/arm-none-eabi/4.8.3/armv6-m\libgcc.a(_aeabi_uldivmod.o)
                              ..\obj\TIMER.o (__aeabi_uldivmod)
c:/program files (x86)/gnu tools arm embedded/4.8 2013q4/bin/../lib/gcc/arm-none-eabi/4.8.3/armv6-m\libgcc.a(_muldi3.o)
                              ..\obj\pp_conf_common.o (__aeabi_lmul)
c:/program files (x86)/gnu tools arm embedded/4.8 2013q4/bin/../lib/gcc/arm-none-eabi/4.8.3/armv6-m\libgcc.a(_fixunssfsi.o)
                              ..\obj\ADC.o (__aeabi_f2uiz)
c:/program files (x86)/gnu tools arm embedded/4.8 2013q4/bin/../lib/gcc/arm-none-eabi/4.8.3/armv6-m\libgcc.a(bpabi.o)
                              c:/program files (x86)/gnu tools arm embedded/4.8 2013q4/bin/../lib/gcc/arm-none-eabi/4.8.3/armv6-m\libgcc.a(_aeabi_ldivmod.o) (__gnu_ldivmod_helper)
c:/program files (x86)/gnu tools arm embedded/4.8 2013q4/bin/../lib/gcc/arm-none-eabi/4.8.3/armv6-m\libgcc.a(addsf3.o)
                              ..\obj\module_api_sys.o (__aeabi_fadd)
c:/program files (x86)/gnu tools arm embedded/4.8 2013q4/bin/../lib/gcc/arm-none-eabi/4.8.3/armv6-m\libgcc.a(divsf3.o)
                              ..\obj\ADC.o (__aeabi_fdiv)
c:/program files (x86)/gnu tools arm embedded/4.8 2013q4/bin/../lib/gcc/arm-none-eabi/4.8.3/armv6-m\libgcc.a(eqsf2.o)
                              c:/program files (x86)/gnu tools arm embedded/4.8 2013q4/bin/../lib/gcc/arm-none-eabi/4.8.3/armv6-m\libgcc.a(_arm_cmpsf2.o) (__eqsf2)
c:/program files (x86)/gnu tools arm embedded/4.8 2013q4/bin/../lib/gcc/arm-none-eabi/4.8.3/armv6-m\libgcc.a(gesf2.o)
                              c:/program files (x86)/gnu tools arm embedded/4.8 2013q4/bin/../lib/gcc/arm-none-eabi/4.8.3/armv6-m\libgcc.a(_arm_cmpsf2.o) (__gesf2)
c:/program files (x86)/gnu tools arm embedded/4.8 2013q4/bin/../lib/gcc/arm-none-eabi/4.8.3/armv6-m\libgcc.a(lesf2.o)
                              c:/program files (x86)/gnu tools arm embedded/4.8 2013q4/bin/../lib/gcc/arm-none-eabi/4.8.3/armv6-m\libgcc.a(_arm_cmpsf2.o) (__lesf2)
c:/program files (x86)/gnu tools arm embedded/4.8 2013q4/bin/../lib/gcc/arm-none-eabi/4.8.3/armv6-m\libgcc.a(mulsf3.o)
                              ..\obj\ADC.o (__aeabi_fmul)
c:/program files (x86)/gnu tools arm embedded/4.8 2013q4/bin/../lib/gcc/arm-none-eabi/4.8.3/armv6-m\libgcc.a(subsf3.o)
                              c:/program files (x86)/gnu tools arm embedded/4.8 2013q4/bin/../lib/gcc/arm-none-eabi/4.8.3/../../../../arm-none-eabi/lib/armv6-m\libm.a(lib_a-ef_log10.o) (__aeabi_fsub)
c:/program files (x86)/gnu tools arm embedded/4.8 2013q4/bin/../lib/gcc/arm-none-eabi/4.8.3/armv6-m\libgcc.a(fixsfsi.o)
                              c:/program files (x86)/gnu tools arm embedded/4.8 2013q4/bin/../lib/gcc/arm-none-eabi/4.8.3/armv6-m\libgcc.a(_fixunssfsi.o) (__aeabi_f2iz)
c:/program files (x86)/gnu tools arm embedded/4.8 2013q4/bin/../lib/gcc/arm-none-eabi/4.8.3/armv6-m\libgcc.a(floatsisf.o)
                              ..\obj\ADC.o (__aeabi_i2f)
c:/program files (x86)/gnu tools arm embedded/4.8 2013q4/bin/../lib/gcc/arm-none-eabi/4.8.3/armv6-m\libgcc.a(floatunsisf.o)
                              ..\obj\ADC.o (__aeabi_ui2f)
c:/program files (x86)/gnu tools arm embedded/4.8 2013q4/bin/../lib/gcc/arm-none-eabi/4.8.3/armv6-m\libgcc.a(extendsfdf2.o)
                              c:/program files (x86)/gnu tools arm embedded/4.8 2013q4/bin/../lib/gcc/arm-none-eabi/4.8.3/../../../../arm-none-eabi/lib/armv6-m\libm.a(lib_a-wf_log10.o) (__aeabi_f2d)
c:/program files (x86)/gnu tools arm embedded/4.8 2013q4/bin/../lib/gcc/arm-none-eabi/4.8.3/armv6-m\libgcc.a(truncdfsf2.o)
                              c:/program files (x86)/gnu tools arm embedded/4.8 2013q4/bin/../lib/gcc/arm-none-eabi/4.8.3/../../../../arm-none-eabi/lib/armv6-m\libm.a(lib_a-wf_log10.o) (__aeabi_d2f)
c:/program files (x86)/gnu tools arm embedded/4.8 2013q4/bin/../lib/gcc/arm-none-eabi/4.8.3/armv6-m\libgcc.a(_clzsi2.o)
                              c:/program files (x86)/gnu tools arm embedded/4.8 2013q4/bin/../lib/gcc/arm-none-eabi/4.8.3/armv6-m\libgcc.a(addsf3.o) (__clzsi2)
c:/program files (x86)/gnu tools arm embedded/4.8 2013q4/bin/../lib/gcc/arm-none-eabi/4.8.3/armv6-m\libgcc.a(_divdi3.o)
                              c:/program files (x86)/gnu tools arm embedded/4.8 2013q4/bin/../lib/gcc/arm-none-eabi/4.8.3/armv6-m\libgcc.a(bpabi.o) (__divdi3)
c:/program files (x86)/gnu tools arm embedded/4.8 2013q4/bin/../lib/gcc/arm-none-eabi/4.8.3/armv6-m\libgcc.a(_udivdi3.o)
                              c:/program files (x86)/gnu tools arm embedded/4.8 2013q4/bin/../lib/gcc/arm-none-eabi/4.8.3/armv6-m\libgcc.a(bpabi.o) (__udivdi3)
c:/program files (x86)/gnu tools arm embedded/4.8 2013q4/bin/../lib/gcc/arm-none-eabi/4.8.3/../../../../arm-none-eabi/lib/armv6-m\libg.a(lib_a-atoi.o)
                              ..\obj\ShellCommand_radio.o (atoi)
c:/program files (x86)/gnu tools arm embedded/4.8 2013q4/bin/../lib/gcc/arm-none-eabi/4.8.3/../../../../arm-none-eabi/lib/armv6-m\libg.a(lib_a-ctype_.o)
                              ..\obj\osal_comp.o (__ctype_ptr__)
c:/program files (x86)/gnu tools arm embedded/4.8 2013q4/bin/../lib/gcc/arm-none-eabi/4.8.3/../../../../arm-none-eabi/lib/armv6-m\libg.a(lib_a-errno.o)
                              c:/program files (x86)/gnu tools arm embedded/4.8 2013q4/bin/../lib/gcc/arm-none-eabi/4.8.3/../../../../arm-none-eabi/lib/armv6-m\libm.a(lib_a-wf_log10.o) (__errno)
c:/program files (x86)/gnu tools arm embedded/4.8 2013q4/bin/../lib/gcc/arm-none-eabi/4.8.3/../../../../arm-none-eabi/lib/armv6-m\libg.a(lib_a-gets.o)
                              ..\obj\main.o (gets)
c:/program files (x86)/gnu tools arm embedded/4.8 2013q4/bin/../lib/gcc/arm-none-eabi/4.8.3/../../../../arm-none-eabi/lib/armv6-m\libg.a(lib_a-impure.o)
                              ..\obj\printf.o (_impure_ptr)
c:/program files (x86)/gnu tools arm embedded/4.8 2013q4/bin/../lib/gcc/arm-none-eabi/4.8.3/../../../../arm-none-eabi/lib/armv6-m\libg.a(lib_a-malloc.o)
                              ..\obj\shell.o (malloc)
c:/program files (x86)/gnu tools arm embedded/4.8 2013q4/bin/../lib/gcc/arm-none-eabi/4.8.3/../../../../arm-none-eabi/lib/armv6-m\libg.a(lib_a-mallocr.o)
                              c:/program files (x86)/gnu tools arm embedded/4.8 2013q4/bin/../lib/gcc/arm-none-eabi/4.8.3/../../../../arm-none-eabi/lib/armv6-m\libg.a(lib_a-malloc.o) (_malloc_r)
c:/program files (x86)/gnu tools arm embedded/4.8 2013q4/bin/../lib/gcc/arm-none-eabi/4.8.3/../../../../arm-none-eabi/lib/armv6-m\libg.a(lib_a-memcmp.o)
                              ..\obj\osal_stdlib.o (memcmp)
c:/program files (x86)/gnu tools arm embedded/4.8 2013q4/bin/../lib/gcc/arm-none-eabi/4.8.3/../../../../arm-none-eabi/lib/armv6-m\libg.a(lib_a-memcpy-stub.o)
                              ..\obj\module_api_radio.o (memcpy)
c:/program files (x86)/gnu tools arm embedded/4.8 2013q4/bin/../lib/gcc/arm-none-eabi/4.8.3/../../../../arm-none-eabi/lib/armv6-m\libg.a(lib_a-memset.o)
                              ..\obj\module_api_sys.o (memset)
c:/program files (x86)/gnu tools arm embedded/4.8 2013q4/bin/../lib/gcc/arm-none-eabi/4.8.3/../../../../arm-none-eabi/lib/armv6-m\libg.a(lib_a-mlock.o)
                              c:/program files (x86)/gnu tools arm embedded/4.8 2013q4/bin/../lib/gcc/arm-none-eabi/4.8.3/../../../../arm-none-eabi/lib/armv6-m\libg.a(lib_a-mallocr.o) (__malloc_lock)
c:/program files (x86)/gnu tools arm embedded/4.8 2013q4/bin/../lib/gcc/arm-none-eabi/4.8.3/../../../../arm-none-eabi/lib/armv6-m\libg.a(lib_a-rget.o)
                              c:/program files (x86)/gnu tools arm embedded/4.8 2013q4/bin/../lib/gcc/arm-none-eabi/4.8.3/../../../../arm-none-eabi/lib/armv6-m\libg.a(lib_a-gets.o) (__srget_r)
c:/program files (x86)/gnu tools arm embedded/4.8 2013q4/bin/../lib/gcc/arm-none-eabi/4.8.3/../../../../arm-none-eabi/lib/armv6-m\libg.a(lib_a-sbrkr.o)
                              c:/program files (x86)/gnu tools arm embedded/4.8 2013q4/bin/../lib/gcc/arm-none-eabi/4.8.3/../../../../arm-none-eabi/lib/armv6-m\libg.a(lib_a-mallocr.o) (_sbrk_r)
c:/program files (x86)/gnu tools arm embedded/4.8 2013q4/bin/../lib/gcc/arm-none-eabi/4.8.3/../../../../arm-none-eabi/lib/armv6-m\libg.a(lib_a-strchr.o)
                              ..\obj\shell.o (strchr)
c:/program files (x86)/gnu tools arm embedded/4.8 2013q4/bin/../lib/gcc/arm-none-eabi/4.8.3/../../../../arm-none-eabi/lib/armv6-m\libg.a(lib_a-strcmp.o)
                              ..\obj\shell.o (strcmp)
c:/program files (x86)/gnu tools arm embedded/4.8 2013q4/bin/../lib/gcc/arm-none-eabi/4.8.3/../../../../arm-none-eabi/lib/armv6-m\libg.a(lib_a-strlen.o)
                              ..\obj\ShellCommand_radio.o (strlen)
c:/program files (x86)/gnu tools arm embedded/4.8 2013q4/bin/../lib/gcc/arm-none-eabi/4.8.3/../../../../arm-none-eabi/lib/armv6-m\libg.a(lib_a-strncmp.o)
                              ..\obj\ShellCommand_radio.o (strncmp)
c:/program files (x86)/gnu tools arm embedded/4.8 2013q4/bin/../lib/gcc/arm-none-eabi/4.8.3/../../../../arm-none-eabi/lib/armv6-m\libg.a(lib_a-strncpy.o)
                              ..\obj\shell.o (strncpy)
c:/program files (x86)/gnu tools arm embedded/4.8 2013q4/bin/../lib/gcc/arm-none-eabi/4.8.3/../../../../arm-none-eabi/lib/armv6-m\libg.a(lib_a-strtol.o)
                              c:/program files (x86)/gnu tools arm embedded/4.8 2013q4/bin/../lib/gcc/arm-none-eabi/4.8.3/../../../../arm-none-eabi/lib/armv6-m\libg.a(lib_a-atoi.o) (_strtol_r)
c:/program files (x86)/gnu tools arm embedded/4.8 2013q4/bin/../lib/gcc/arm-none-eabi/4.8.3/../../../../arm-none-eabi/lib/armv6-m\libg.a(lib_a-strtoul.o)
                              ..\obj\ShellCommand_system.o (strtoul)
c:/program files (x86)/gnu tools arm embedded/4.8 2013q4/bin/../lib/gcc/arm-none-eabi/4.8.3/../../../../arm-none-eabi/lib/armv6-m\libg.a(lib_a-findfp.o)
                              c:/program files (x86)/gnu tools arm embedded/4.8 2013q4/bin/../lib/gcc/arm-none-eabi/4.8.3/../../../../arm-none-eabi/lib/armv6-m\libg.a(lib_a-rget.o) (__sinit)
c:/program files (x86)/gnu tools arm embedded/4.8 2013q4/bin/../lib/gcc/arm-none-eabi/4.8.3/../../../../arm-none-eabi/lib/armv6-m\libg.a(lib_a-freer.o)
                              c:/program files (x86)/gnu tools arm embedded/4.8 2013q4/bin/../lib/gcc/arm-none-eabi/4.8.3/../../../../arm-none-eabi/lib/armv6-m\libg.a(lib_a-malloc.o) (_free_r)
c:/program files (x86)/gnu tools arm embedded/4.8 2013q4/bin/../lib/gcc/arm-none-eabi/4.8.3/../../../../arm-none-eabi/lib/armv6-m\libg.a(lib_a-fwalk.o)
                              c:/program files (x86)/gnu tools arm embedded/4.8 2013q4/bin/../lib/gcc/arm-none-eabi/4.8.3/../../../../arm-none-eabi/lib/armv6-m\libg.a(lib_a-findfp.o) (_fwalk)
c:/program files (x86)/gnu tools arm embedded/4.8 2013q4/bin/../lib/gcc/arm-none-eabi/4.8.3/../../../../arm-none-eabi/lib/armv6-m\libg.a(lib_a-reent.o)
                              c:/program files (x86)/gnu tools arm embedded/4.8 2013q4/bin/../lib/gcc/arm-none-eabi/4.8.3/../../../../arm-none-eabi/lib/armv6-m\libg.a(lib_a-sbrkr.o) (errno)
c:/program files (x86)/gnu tools arm embedded/4.8 2013q4/bin/../lib/gcc/arm-none-eabi/4.8.3/../../../../arm-none-eabi/lib/armv6-m\libg.a(lib_a-refill.o)
                              c:/program files (x86)/gnu tools arm embedded/4.8 2013q4/bin/../lib/gcc/arm-none-eabi/4.8.3/../../../../arm-none-eabi/lib/armv6-m\libg.a(lib_a-rget.o) (__srefill_r)
c:/program files (x86)/gnu tools arm embedded/4.8 2013q4/bin/../lib/gcc/arm-none-eabi/4.8.3/../../../../arm-none-eabi/lib/armv6-m\libg.a(lib_a-stdio.o)
                              c:/program files (x86)/gnu tools arm embedded/4.8 2013q4/bin/../lib/gcc/arm-none-eabi/4.8.3/../../../../arm-none-eabi/lib/armv6-m\libg.a(lib_a-findfp.o) (__sread)
c:/program files (x86)/gnu tools arm embedded/4.8 2013q4/bin/../lib/gcc/arm-none-eabi/4.8.3/../../../../arm-none-eabi/lib/armv6-m\libg.a(lib_a-writer.o)
                              c:/program files (x86)/gnu tools arm embedded/4.8 2013q4/bin/../lib/gcc/arm-none-eabi/4.8.3/../../../../arm-none-eabi/lib/armv6-m\libg.a(lib_a-stdio.o) (_write_r)
c:/program files (x86)/gnu tools arm embedded/4.8 2013q4/bin/../lib/gcc/arm-none-eabi/4.8.3/../../../../arm-none-eabi/lib/armv6-m\libg.a(lib_a-closer.o)
                              c:/program files (x86)/gnu tools arm embedded/4.8 2013q4/bin/../lib/gcc/arm-none-eabi/4.8.3/../../../../arm-none-eabi/lib/armv6-m\libg.a(lib_a-stdio.o) (_close_r)
c:/program files (x86)/gnu tools arm embedded/4.8 2013q4/bin/../lib/gcc/arm-none-eabi/4.8.3/../../../../arm-none-eabi/lib/armv6-m\libg.a(lib_a-fclose.o)
                              c:/program files (x86)/gnu tools arm embedded/4.8 2013q4/bin/../lib/gcc/arm-none-eabi/4.8.3/../../../../arm-none-eabi/lib/armv6-m\libg.a(lib_a-findfp.o) (fclose)
c:/program files (x86)/gnu tools arm embedded/4.8 2013q4/bin/../lib/gcc/arm-none-eabi/4.8.3/../../../../arm-none-eabi/lib/armv6-m\libg.a(lib_a-fflush.o)
                              c:/program files (x86)/gnu tools arm embedded/4.8 2013q4/bin/../lib/gcc/arm-none-eabi/4.8.3/../../../../arm-none-eabi/lib/armv6-m\libg.a(lib_a-refill.o) (__sflush_r)
c:/program files (x86)/gnu tools arm embedded/4.8 2013q4/bin/../lib/gcc/arm-none-eabi/4.8.3/../../../../arm-none-eabi/lib/armv6-m\libg.a(lib_a-lseekr.o)
                              c:/program files (x86)/gnu tools arm embedded/4.8 2013q4/bin/../lib/gcc/arm-none-eabi/4.8.3/../../../../arm-none-eabi/lib/armv6-m\libg.a(lib_a-stdio.o) (_lseek_r)
c:/program files (x86)/gnu tools arm embedded/4.8 2013q4/bin/../lib/gcc/arm-none-eabi/4.8.3/../../../../arm-none-eabi/lib/armv6-m\libg.a(lib_a-makebuf.o)
                              c:/program files (x86)/gnu tools arm embedded/4.8 2013q4/bin/../lib/gcc/arm-none-eabi/4.8.3/../../../../arm-none-eabi/lib/armv6-m\libg.a(lib_a-refill.o) (__smakebuf_r)
c:/program files (x86)/gnu tools arm embedded/4.8 2013q4/bin/../lib/gcc/arm-none-eabi/4.8.3/../../../../arm-none-eabi/lib/armv6-m\libg.a(lib_a-readr.o)
                              c:/program files (x86)/gnu tools arm embedded/4.8 2013q4/bin/../lib/gcc/arm-none-eabi/4.8.3/../../../../arm-none-eabi/lib/armv6-m\libg.a(lib_a-stdio.o) (_read_r)
c:/program files (x86)/gnu tools arm embedded/4.8 2013q4/bin/../lib/gcc/arm-none-eabi/4.8.3/../../../../arm-none-eabi/lib/armv6-m\libg.a(lib_a-fstatr.o)
                              c:/program files (x86)/gnu tools arm embedded/4.8 2013q4/bin/../lib/gcc/arm-none-eabi/4.8.3/../../../../arm-none-eabi/lib/armv6-m\libg.a(lib_a-makebuf.o) (_fstat_r)
c:/program files (x86)/gnu tools arm embedded/4.8 2013q4/bin/../lib/gcc/arm-none-eabi/4.8.3/../../../../arm-none-eabi/lib/armv6-m\libg.a(lib_a-isattyr.o)
                              c:/program files (x86)/gnu tools arm embedded/4.8 2013q4/bin/../lib/gcc/arm-none-eabi/4.8.3/../../../../arm-none-eabi/lib/armv6-m\libg.a(lib_a-makebuf.o) (_isatty_r)

Allocating common symbols
Common symbol       size              file

errno               0x4               c:/program files (x86)/gnu tools arm embedded/4.8 2013q4/bin/../lib/gcc/arm-none-eabi/4.8.3/../../../../arm-none-eabi/lib/armv6-m\libg.a(lib_a-reent.o)
ctx                 0x64              ..\obj\module_api_sys.o
contexte_config     0x6c              ..\obj\module_api_sys.o
filter_types_t      0x58              ..\..\..\..\LTA_LIB\libbespoon_LTA_official.a(afc_filter.o)

Discarded input sections

 .text          0x00000000        0x0 ..\obj\stm32f0xx_crc.o
 .data          0x00000000        0x0 ..\obj\stm32f0xx_crc.o
 .bss           0x00000000        0x0 ..\obj\stm32f0xx_crc.o
 .text.CRC_DeInit
                0x00000000       0x20 ..\obj\stm32f0xx_crc.o
 .text.CRC_ResetDR
                0x00000000       0x10 ..\obj\stm32f0xx_crc.o
 .text.CRC_PolynomialSizeSelect
                0x00000000       0x14 ..\obj\stm32f0xx_crc.o
 .text.CRC_ReverseInputDataSelect
                0x00000000       0x14 ..\obj\stm32f0xx_crc.o
 .text.CRC_ReverseOutputDataCmd
                0x00000000       0x1c ..\obj\stm32f0xx_crc.o
 .text.CRC_SetInitRegister
                0x00000000        0xc ..\obj\stm32f0xx_crc.o
 .text.CRC_SetPolynomial
                0x00000000        0xc ..\obj\stm32f0xx_crc.o
 .text.CRC_CalcCRC
                0x00000000        0xc ..\obj\stm32f0xx_crc.o
 .text.CRC_CalcCRC16bits
                0x00000000        0xc ..\obj\stm32f0xx_crc.o
 .text.CRC_CalcCRC8bits
                0x00000000        0xc ..\obj\stm32f0xx_crc.o
 .text.CRC_CalcBlockCRC
                0x00000000       0x1c ..\obj\stm32f0xx_crc.o
 .text.CRC_GetCRC
                0x00000000        0xc ..\obj\stm32f0xx_crc.o
 .text.CRC_SetIDRegister
                0x00000000        0xc ..\obj\stm32f0xx_crc.o
 .text.CRC_GetIDRegister
                0x00000000        0xc ..\obj\stm32f0xx_crc.o
 .debug_info    0x00000000      0x332 ..\obj\stm32f0xx_crc.o
 .debug_abbrev  0x00000000      0x169 ..\obj\stm32f0xx_crc.o
 .debug_aranges
                0x00000000       0x88 ..\obj\stm32f0xx_crc.o
 .debug_ranges  0x00000000       0x78 ..\obj\stm32f0xx_crc.o
 .debug_line    0x00000000      0x23e ..\obj\stm32f0xx_crc.o
 .debug_str     0x00000000      0x328 ..\obj\stm32f0xx_crc.o
 .comment       0x00000000       0x71 ..\obj\stm32f0xx_crc.o
 .ARM.attributes
                0x00000000       0x31 ..\obj\stm32f0xx_crc.o
 .debug_frame   0x00000000       0xf0 ..\obj\stm32f0xx_crc.o
 .text          0x00000000        0x0 ..\obj\stm32f0xx_rcc.o
 .bss           0x00000000        0x0 ..\obj\stm32f0xx_rcc.o
 .text.RCC_DeInit
                0x00000000       0x60 ..\obj\stm32f0xx_rcc.o
 .text.RCC_HSEConfig
                0x00000000       0x10 ..\obj\stm32f0xx_rcc.o
 .text.RCC_WaitForHSEStartUp
                0x00000000       0x30 ..\obj\stm32f0xx_rcc.o
 .text.RCC_AdjustHSICalibrationValue
                0x00000000       0x14 ..\obj\stm32f0xx_rcc.o
 .text.RCC_AdjustHSI14CalibrationValue
                0x00000000       0x14 ..\obj\stm32f0xx_rcc.o
 .text.RCC_HSI14Cmd
                0x00000000       0x1c ..\obj\stm32f0xx_rcc.o
 .text.RCC_HSI14ADCRequestCmd
                0x00000000       0x1c ..\obj\stm32f0xx_rcc.o
 .text.RCC_PREDIV1Config
                0x00000000       0x14 ..\obj\stm32f0xx_rcc.o
 .text.RCC_ClockSecuritySystemCmd
                0x00000000       0x20 ..\obj\stm32f0xx_rcc.o
 .text.RCC_MCOConfig
                0x00000000       0x18 ..\obj\stm32f0xx_rcc.o
 .text.RCC_HCLKConfig
                0x00000000       0x14 ..\obj\stm32f0xx_rcc.o
 .text.RCC_PCLKConfig
                0x00000000       0x18 ..\obj\stm32f0xx_rcc.o
 .text.RCC_ADCCLKConfig
                0x00000000       0x30 ..\obj\stm32f0xx_rcc.o
 .text.RCC_CECCLKConfig
                0x00000000       0x18 ..\obj\stm32f0xx_rcc.o
 .text.RCC_I2CCLKConfig
                0x00000000       0x18 ..\obj\stm32f0xx_rcc.o
 .text.RCC_USARTCLKConfig
                0x00000000       0x28 ..\obj\stm32f0xx_rcc.o
 .text.RCC_USBCLKConfig
                0x00000000       0x18 ..\obj\stm32f0xx_rcc.o
 .text.RCC_AHBPeriphResetCmd
                0x00000000       0x18 ..\obj\stm32f0xx_rcc.o
 .text.RCC_ITConfig
                0x00000000       0x18 ..\obj\stm32f0xx_rcc.o
 .text.RCC_ClearFlag
                0x00000000       0x14 ..\obj\stm32f0xx_rcc.o
 .text.RCC_GetITStatus
                0x00000000       0x14 ..\obj\stm32f0xx_rcc.o
 .text.RCC_ClearITPendingBit
                0x00000000        0xc ..\obj\stm32f0xx_rcc.o
 .text          0x00000000        0x0 ..\obj\pinpointer_hw.o
 .data          0x00000000        0x0 ..\obj\pinpointer_hw.o
 .bss           0x00000000        0x0 ..\obj\pinpointer_hw.o
 .text.pp_hw_dbg
                0x00000000       0x14 ..\obj\pinpointer_hw.o
 .text.pp_hw_pa_enable
                0x00000000       0x14 ..\obj\pinpointer_hw.o
 .text.pp_hw_is_pa_enable
                0x00000000        0xc ..\obj\pinpointer_hw.o
 .text          0x00000000        0x0 ..\obj\stm32f0xx_adc.o
 .data          0x00000000        0x0 ..\obj\stm32f0xx_adc.o
 .bss           0x00000000        0x0 ..\obj\stm32f0xx_adc.o
 .text.ADC_JitterCmd
                0x00000000       0x14 ..\obj\stm32f0xx_adc.o
 .text.ADC_AutoPowerOffCmd
                0x00000000       0x1c ..\obj\stm32f0xx_adc.o
 .text.ADC_WaitModeCmd
                0x00000000       0x1c ..\obj\stm32f0xx_adc.o
 .text.ADC_AnalogWatchdogCmd
                0x00000000       0x1c ..\obj\stm32f0xx_adc.o
 .text.ADC_AnalogWatchdogThresholdsConfig
                0x00000000        0x8 ..\obj\stm32f0xx_adc.o
 .text.ADC_AnalogWatchdogSingleChannelConfig
                0x00000000       0x10 ..\obj\stm32f0xx_adc.o
 .text.ADC_AnalogWatchdogSingleChannelCmd
                0x00000000       0x1c ..\obj\stm32f0xx_adc.o
 .text.ADC_ContinuousModeCmd
                0x00000000       0x1c ..\obj\stm32f0xx_adc.o
 .text.ADC_DiscModeCmd
                0x00000000       0x1c ..\obj\stm32f0xx_adc.o
 .text.ADC_OverrunModeCmd
                0x00000000       0x1c ..\obj\stm32f0xx_adc.o
 .text.ADC_GetConversionValue
                0x00000000        0x8 ..\obj\stm32f0xx_adc.o
 .text.ADC_ITConfig
                0x00000000       0x14 ..\obj\stm32f0xx_adc.o
 .text.ADC_ClearFlag
                0x00000000        0x4 ..\obj\stm32f0xx_adc.o
 .text.ADC_GetITStatus
                0x00000000       0x14 ..\obj\stm32f0xx_adc.o
 .text.ADC_ClearITPendingBit
                0x00000000        0x4 ..\obj\stm32f0xx_adc.o
 .text          0x00000000        0x0 ..\obj\DAC.o
 .data          0x00000000        0x0 ..\obj\DAC.o
 .text          0x00000000        0x0 ..\obj\ACCELERO.o
 .data          0x00000000        0x0 ..\obj\ACCELERO.o
 .bss           0x00000000        0x0 ..\obj\ACCELERO.o
 .text.LIS2DM   0x00000000        0x4 ..\obj\ACCELERO.o
 .text.LIS2DM_isMoving
                0x00000000        0x4 ..\obj\ACCELERO.o
 .text.LIS2DM_EnableINT
                0x00000000        0x4 ..\obj\ACCELERO.o
 .text.LIS2DM_X
                0x00000000        0x4 ..\obj\ACCELERO.o
 .text.LIS2DM_Y
                0x00000000        0x4 ..\obj\ACCELERO.o
 .text.LIS2DM_Z
                0x00000000        0x4 ..\obj\ACCELERO.o
 .text.LIS2DM_test
                0x00000000        0x4 ..\obj\ACCELERO.o
 .text.LIS2DM_init_test
                0x00000000        0x4 ..\obj\ACCELERO.o
 .text.LIS2DM_self_test
                0x00000000        0x4 ..\obj\ACCELERO.o
 .text.LIS2DM_read
                0x00000000        0x4 ..\obj\ACCELERO.o
 .text.LIS2DM_write
                0x00000000        0x4 ..\obj\ACCELERO.o
 .text          0x00000000        0x0 ..\obj\stm32f0xx_iwdg.o
 .data          0x00000000        0x0 ..\obj\stm32f0xx_iwdg.o
 .bss           0x00000000        0x0 ..\obj\stm32f0xx_iwdg.o
 .text.IWDG_WriteAccessCmd
                0x00000000        0xc ..\obj\stm32f0xx_iwdg.o
 .text.IWDG_SetPrescaler
                0x00000000        0xc ..\obj\stm32f0xx_iwdg.o
 .text.IWDG_SetReload
                0x00000000        0xc ..\obj\stm32f0xx_iwdg.o
 .text.IWDG_ReloadCounter
                0x00000000       0x10 ..\obj\stm32f0xx_iwdg.o
 .text.IWDG_SetWindowValue
                0x00000000        0xc ..\obj\stm32f0xx_iwdg.o
 .text.IWDG_Enable
                0x00000000       0x10 ..\obj\stm32f0xx_iwdg.o
 .text.IWDG_GetFlagStatus
                0x00000000       0x14 ..\obj\stm32f0xx_iwdg.o
 .debug_info    0x00000000      0x1ea ..\obj\stm32f0xx_iwdg.o
 .debug_abbrev  0x00000000      0x10a ..\obj\stm32f0xx_iwdg.o
 .debug_aranges
                0x00000000       0x50 ..\obj\stm32f0xx_iwdg.o
 .debug_ranges  0x00000000       0x40 ..\obj\stm32f0xx_iwdg.o
 .debug_line    0x00000000      0x198 ..\obj\stm32f0xx_iwdg.o
 .debug_str     0x00000000      0x251 ..\obj\stm32f0xx_iwdg.o
 .comment       0x00000000       0x71 ..\obj\stm32f0xx_iwdg.o
 .ARM.attributes
                0x00000000       0x31 ..\obj\stm32f0xx_iwdg.o
 .debug_frame   0x00000000       0x80 ..\obj\stm32f0xx_iwdg.o
 .text          0x00000000        0x0 ..\obj\pp_conf_common.o
 .data          0x00000000        0x0 ..\obj\pp_conf_common.o
 .bss           0x00000000        0x0 ..\obj\pp_conf_common.o
 .text          0x00000000        0x0 ..\obj\stm32f0xx_cec.o
 .data          0x00000000        0x0 ..\obj\stm32f0xx_cec.o
 .bss           0x00000000        0x0 ..\obj\stm32f0xx_cec.o
 .text.CEC_DeInit
                0x00000000       0x18 ..\obj\stm32f0xx_cec.o
 .text.CEC_Init
                0x00000000       0x34 ..\obj\stm32f0xx_cec.o
 .text.CEC_StructInit
                0x00000000       0x14 ..\obj\stm32f0xx_cec.o
 .text.CEC_Cmd  0x00000000       0x1c ..\obj\stm32f0xx_cec.o
 .text.CEC_ListenModeCmd
                0x00000000       0x20 ..\obj\stm32f0xx_cec.o
 .text.CEC_OwnAddressConfig
                0x00000000       0x18 ..\obj\stm32f0xx_cec.o
 .text.CEC_OwnAddressClear
                0x00000000        0xc ..\obj\stm32f0xx_cec.o
 .text.CEC_SendData
                0x00000000        0xc ..\obj\stm32f0xx_cec.o
 .text.CEC_ReceiveData
                0x00000000        0xc ..\obj\stm32f0xx_cec.o
 .text.CEC_StartOfMessage
                0x00000000       0x10 ..\obj\stm32f0xx_cec.o
 .text.CEC_EndOfMessage
                0x00000000       0x10 ..\obj\stm32f0xx_cec.o
 .text.CEC_ITConfig
                0x00000000       0x1c ..\obj\stm32f0xx_cec.o
 .text.CEC_GetFlagStatus
                0x00000000       0x14 ..\obj\stm32f0xx_cec.o
 .text.CEC_ClearFlag
                0x00000000        0xc ..\obj\stm32f0xx_cec.o
 .text.CEC_GetITStatus
                0x00000000       0x1c ..\obj\stm32f0xx_cec.o
 .text.CEC_ClearITPendingBit
                0x00000000        0xc ..\obj\stm32f0xx_cec.o
 .debug_info    0x00000000      0x3f1 ..\obj\stm32f0xx_cec.o
 .debug_abbrev  0x00000000      0x1be ..\obj\stm32f0xx_cec.o
 .debug_aranges
                0x00000000       0x98 ..\obj\stm32f0xx_cec.o
 .debug_ranges  0x00000000       0x88 ..\obj\stm32f0xx_cec.o
 .debug_line    0x00000000      0x2c0 ..\obj\stm32f0xx_cec.o
 .debug_str     0x00000000      0x39d ..\obj\stm32f0xx_cec.o
 .comment       0x00000000       0x71 ..\obj\stm32f0xx_cec.o
 .ARM.attributes
                0x00000000       0x31 ..\obj\stm32f0xx_cec.o
 .debug_frame   0x00000000      0x120 ..\obj\stm32f0xx_cec.o
 .text          0x00000000        0x0 ..\obj\main.o
 .data          0x00000000        0x0 ..\obj\main.o
 .bss           0x00000000        0x0 ..\obj\main.o
 .text.define_printf
                0x00000000       0x10 ..\obj\main.o
 .text          0x00000000        0x0 ..\obj\pinpointer_config.o
 .bss           0x00000000        0x0 ..\obj\pinpointer_config.o
 .text.pp_conf_get_hw_offset
                0x00000000      0x51c ..\obj\pinpointer_config.o
 .text.prep_config_exit
                0x00000000       0x1c ..\obj\pinpointer_config.o
 .text.set_prodSection
                0x00000000       0x2c ..\obj\pinpointer_config.o
 .text.get_setting_mux_rst
                0x00000000       0x28 ..\obj\pinpointer_config.o
 .text.get_longAddress
                0x00000000       0x64 ..\obj\pinpointer_config.o
 .text.get_channelDefault
                0x00000000       0x14 ..\obj\pinpointer_config.o
 .text.get_framerCfgDefault
                0x00000000       0x14 ..\obj\pinpointer_config.o
 .text.get_dacDefault
                0x00000000       0x2c ..\obj\pinpointer_config.o
 .text.pp_conf_set_threshold_coeff
                0x00000000       0x48 ..\obj\pinpointer_config.o
 .text.pp_conf_set_hw_offset
                0x00000000       0x2c ..\obj\pinpointer_config.o
 .text.pp_conf_get_temperature
                0x00000000       0x18 ..\obj\pinpointer_config.o
 .text          0x00000000        0x0 ..\obj\RCC.o
 .data          0x00000000        0x0 ..\obj\RCC.o
 .bss           0x00000000        0x0 ..\obj\RCC.o
 .text.HAL_MCU_Sleep_Mode
                0x00000000       0x1c ..\obj\RCC.o
 .text          0x00000000       0x14 ..\obj\startup_stm32f0xx.o
 .data          0x00000000        0x0 ..\obj\startup_stm32f0xx.o
 .bss           0x00000000        0x0 ..\obj\startup_stm32f0xx.o
 .text          0x00000000        0x0 ..\obj\ShellCommand_radio.o
 .data          0x00000000        0x0 ..\obj\ShellCommand_radio.o
 .text          0x00000000        0x0 ..\obj\utils.o
 .data          0x00000000        0x0 ..\obj\utils.o
 .bss           0x00000000        0x0 ..\obj\utils.o
 .text          0x00000000        0x0 ..\obj\module_api_seq.o
 .data          0x00000000        0x0 ..\obj\module_api_seq.o
 .bss           0x00000000        0x0 ..\obj\module_api_seq.o
 .text          0x00000000        0x0 ..\obj\GPIO.o
 .data          0x00000000        0x0 ..\obj\GPIO.o
 .bss           0x00000000        0x0 ..\obj\GPIO.o
 .text          0x00000000        0x0 ..\obj\stm32f0xx_dma.o
 .data          0x00000000        0x0 ..\obj\stm32f0xx_dma.o
 .bss           0x00000000        0x0 ..\obj\stm32f0xx_dma.o
 .text.DMA_StructInit
                0x00000000       0x1c ..\obj\stm32f0xx_dma.o
 .text.DMA_SetCurrDataCounter
                0x00000000        0x4 ..\obj\stm32f0xx_dma.o
 .text.DMA_GetCurrDataCounter
                0x00000000        0x8 ..\obj\stm32f0xx_dma.o
 .text          0x00000000        0x0 ..\obj\TIMER.o
 .data          0x00000000        0x0 ..\obj\TIMER.o
 .text.reset_time
                0x00000000       0x10 ..\obj\TIMER.o
 .text.HAL_TIMER_DeInit
                0x00000000       0x40 ..\obj\TIMER.o
 .text          0x00000000        0x0 ..\obj\ADC.o
 .data          0x00000000        0x0 ..\obj\ADC.o
 .text          0x00000000        0x0 ..\obj\Ext_Com.o
 .text          0x00000000        0x0 ..\obj\printf.o
 .data          0x00000000      0x428 ..\obj\printf.o
 .bss           0x00000000        0x0 ..\obj\printf.o
 .text.snprintf
                0x00000000       0x18 ..\obj\printf.o
 .text.fprintf  0x00000000       0x18 ..\obj\printf.o
 .text.sprintf  0x00000000       0x18 ..\obj\printf.o
 .text.puts     0x00000000       0x14 ..\obj\printf.o
 .text          0x00000000        0x0 ..\obj\module_api_radio.o
 .data          0x00000000        0x0 ..\obj\module_api_radio.o
 .bss           0x00000000        0x0 ..\obj\module_api_radio.o
 .text.radio_ext32K_calibrate
                0x00000000      0x278 ..\obj\module_api_radio.o
 .text          0x00000000        0x0 ..\obj\osal_synch.o
 .data          0x00000000        0x0 ..\obj\osal_synch.o
 .bss           0x00000000        0x0 ..\obj\osal_synch.o
 .debug_info    0x00000000       0x67 ..\obj\osal_synch.o
 .debug_abbrev  0x00000000       0x19 ..\obj\osal_synch.o
 .debug_aranges
                0x00000000       0x18 ..\obj\osal_synch.o
 .debug_line    0x00000000       0x1d ..\obj\osal_synch.o
 .debug_str     0x00000000      0x14b ..\obj\osal_synch.o
 .comment       0x00000000       0x71 ..\obj\osal_synch.o
 .ARM.attributes
                0x00000000       0x31 ..\obj\osal_synch.o
 .text          0x00000000        0x0 ..\obj\I2C.o
 .data          0x00000000        0x0 ..\obj\I2C.o
 .bss           0x00000000        0x0 ..\obj\I2C.o
 .text.HAL_I2C_ReadTransfer
                0x00000000        0x8 ..\obj\I2C.o
 .text.HAL_I2C_WriteTransfer
                0x00000000        0x8 ..\obj\I2C.o
 .text.I2C1_EV_IRQHandler
                0x00000000        0x4 ..\obj\I2C.o
 .text.I2C2_EV_IRQHandler
                0x00000000        0x4 ..\obj\I2C.o
 .text          0x00000000        0x0 ..\obj\prodSection_read.o
 .data          0x00000000        0x0 ..\obj\prodSection_read.o
 .bss           0x00000000        0x0 ..\obj\prodSection_read.o
 .text          0x00000000        0x0 ..\obj\stm32f0xx_spi.o
 .data          0x00000000        0x0 ..\obj\stm32f0xx_spi.o
 .bss           0x00000000        0x0 ..\obj\stm32f0xx_spi.o
 .text.SPI_StructInit
                0x00000000       0x1c ..\obj\stm32f0xx_spi.o
 .text.I2S_StructInit
                0x00000000       0x14 ..\obj\stm32f0xx_spi.o
 .text.I2S_Init
                0x00000000       0xac ..\obj\stm32f0xx_spi.o
 .text.SPI_TIModeCmd
                0x00000000       0x14 ..\obj\stm32f0xx_spi.o
 .text.I2S_Cmd  0x00000000       0x1c ..\obj\stm32f0xx_spi.o
 .text.SPI_DataSizeConfig
                0x00000000       0x10 ..\obj\stm32f0xx_spi.o
 .text.SPI_BiDirectionalLineConfig
                0x00000000       0x20 ..\obj\stm32f0xx_spi.o
 .text.SPI_NSSInternalSoftwareConfig
                0x00000000       0x20 ..\obj\stm32f0xx_spi.o
 .text.SPI_NSSPulseModeCmd
                0x00000000       0x14 ..\obj\stm32f0xx_spi.o
 .text.SPI_SendData8
                0x00000000        0x4 ..\obj\stm32f0xx_spi.o
 .text.SPI_I2S_SendData16
                0x00000000        0x4 ..\obj\stm32f0xx_spi.o
 .text.SPI_I2S_ReceiveData16
                0x00000000        0x8 ..\obj\stm32f0xx_spi.o
 .text.SPI_CRCLengthConfig
                0x00000000       0x14 ..\obj\stm32f0xx_spi.o
 .text.SPI_CalculateCRC
                0x00000000       0x1c ..\obj\stm32f0xx_spi.o
 .text.SPI_TransmitCRC
                0x00000000        0xc ..\obj\stm32f0xx_spi.o
 .text.SPI_GetCRC
                0x00000000       0x10 ..\obj\stm32f0xx_spi.o
 .text.SPI_GetCRCPolynomial
                0x00000000        0x8 ..\obj\stm32f0xx_spi.o
 .text.SPI_LastDMATransferCmd
                0x00000000       0x14 ..\obj\stm32f0xx_spi.o
 .text.SPI_I2S_ITConfig
                0x00000000       0x1c ..\obj\stm32f0xx_spi.o
 .text.SPI_I2S_ClearFlag
                0x00000000        0x8 ..\obj\stm32f0xx_spi.o
 .text.SPI_I2S_GetITStatus
                0x00000000       0x2c ..\obj\stm32f0xx_spi.o
 .text          0x00000000        0x0 ..\obj\msq_config.o
 .data          0x00000000        0x0 ..\obj\msq_config.o
 .text          0x00000000        0x0 ..\obj\stm32f0xx_i2c.o
 .data          0x00000000        0x0 ..\obj\stm32f0xx_i2c.o
 .bss           0x00000000        0x0 ..\obj\stm32f0xx_i2c.o
 .text.I2C_DeInit
                0x00000000       0x34 ..\obj\stm32f0xx_i2c.o
 .text.I2C_Init
                0x00000000       0x64 ..\obj\stm32f0xx_i2c.o
 .text.I2C_StructInit
                0x00000000       0x18 ..\obj\stm32f0xx_i2c.o
 .text.I2C_Cmd  0x00000000       0x14 ..\obj\stm32f0xx_i2c.o
 .text.I2C_SoftwareResetCmd
                0x00000000       0x14 ..\obj\stm32f0xx_i2c.o
 .text.I2C_ITConfig
                0x00000000       0x14 ..\obj\stm32f0xx_i2c.o
 .text.I2C_StretchClockCmd
                0x00000000       0x1c ..\obj\stm32f0xx_i2c.o
 .text.I2C_StopModeCmd
                0x00000000       0x1c ..\obj\stm32f0xx_i2c.o
 .text.I2C_DualAddressCmd
                0x00000000       0x1c ..\obj\stm32f0xx_i2c.o
 .text.I2C_OwnAddress2Config
                0x00000000       0x20 ..\obj\stm32f0xx_i2c.o
 .text.I2C_GeneralCallCmd
                0x00000000       0x1c ..\obj\stm32f0xx_i2c.o
 .text.I2C_SlaveByteControlCmd
                0x00000000       0x1c ..\obj\stm32f0xx_i2c.o
 .text.I2C_SlaveAddressConfig
                0x00000000       0x10 ..\obj\stm32f0xx_i2c.o
 .text.I2C_10BitAddressingModeCmd
                0x00000000       0x1c ..\obj\stm32f0xx_i2c.o
 .text.I2C_AutoEndCmd
                0x00000000       0x1c ..\obj\stm32f0xx_i2c.o
 .text.I2C_ReloadCmd
                0x00000000       0x1c ..\obj\stm32f0xx_i2c.o
 .text.I2C_NumberOfBytesConfig
                0x00000000       0x14 ..\obj\stm32f0xx_i2c.o
 .text.I2C_MasterRequestConfig
                0x00000000       0x1c ..\obj\stm32f0xx_i2c.o
 .text.I2C_GenerateSTART
                0x00000000       0x1c ..\obj\stm32f0xx_i2c.o
 .text.I2C_GenerateSTOP
                0x00000000       0x1c ..\obj\stm32f0xx_i2c.o
 .text.I2C_10BitAddressHeaderCmd
                0x00000000       0x1c ..\obj\stm32f0xx_i2c.o
 .text.I2C_AcknowledgeConfig
                0x00000000       0x1c ..\obj\stm32f0xx_i2c.o
 .text.I2C_GetAddressMatched
                0x00000000        0xc ..\obj\stm32f0xx_i2c.o
 .text.I2C_GetTransferDirection
                0x00000000        0xc ..\obj\stm32f0xx_i2c.o
 .text.I2C_TransferHandling
                0x00000000       0x24 ..\obj\stm32f0xx_i2c.o
 .text.I2C_SMBusAlertCmd
                0x00000000       0x1c ..\obj\stm32f0xx_i2c.o
 .text.I2C_ClockTimeoutCmd
                0x00000000       0x1c ..\obj\stm32f0xx_i2c.o
 .text.I2C_ExtendedClockTimeoutCmd
                0x00000000       0x18 ..\obj\stm32f0xx_i2c.o
 .text.I2C_IdleClockTimeoutCmd
                0x00000000       0x1c ..\obj\stm32f0xx_i2c.o
 .text.I2C_TimeoutAConfig
                0x00000000       0x10 ..\obj\stm32f0xx_i2c.o
 .text.I2C_TimeoutBConfig
                0x00000000       0x1c ..\obj\stm32f0xx_i2c.o
 .text.I2C_CalculatePEC
                0x00000000       0x1c ..\obj\stm32f0xx_i2c.o
 .text.I2C_PECRequestCmd
                0x00000000       0x1c ..\obj\stm32f0xx_i2c.o
 .text.I2C_GetPEC
                0x00000000        0x8 ..\obj\stm32f0xx_i2c.o
 .text.I2C_ReadRegister
                0x00000000       0x18 ..\obj\stm32f0xx_i2c.o
 .text.I2C_SendData
                0x00000000        0x4 ..\obj\stm32f0xx_i2c.o
 .text.I2C_ReceiveData
                0x00000000        0x8 ..\obj\stm32f0xx_i2c.o
 .text.I2C_DMACmd
                0x00000000       0x14 ..\obj\stm32f0xx_i2c.o
 .text.I2C_GetFlagStatus
                0x00000000        0xc ..\obj\stm32f0xx_i2c.o
 .text.I2C_ClearFlag
                0x00000000        0x4 ..\obj\stm32f0xx_i2c.o
 .text.I2C_GetITStatus
                0x00000000       0x30 ..\obj\stm32f0xx_i2c.o
 .text.I2C_ClearITPendingBit
                0x00000000        0x4 ..\obj\stm32f0xx_i2c.o
 .debug_info    0x00000000      0xb1e ..\obj\stm32f0xx_i2c.o
 .debug_abbrev  0x00000000      0x190 ..\obj\stm32f0xx_i2c.o
 .debug_aranges
                0x00000000      0x168 ..\obj\stm32f0xx_i2c.o
 .debug_ranges  0x00000000      0x158 ..\obj\stm32f0xx_i2c.o
 .debug_line    0x00000000      0x51e ..\obj\stm32f0xx_i2c.o
 .debug_str     0x00000000      0x617 ..\obj\stm32f0xx_i2c.o
 .comment       0x00000000       0x71 ..\obj\stm32f0xx_i2c.o
 .ARM.attributes
                0x00000000       0x31 ..\obj\stm32f0xx_i2c.o
 .debug_frame   0x00000000      0x2dc ..\obj\stm32f0xx_i2c.o
 .text          0x00000000        0x0 ..\obj\uwbmodule_com_common.o
 .data          0x00000000        0x0 ..\obj\uwbmodule_com_common.o
 .text.uwb_com_analyze_and_answer_gotcommand
                0x00000000       0x54 ..\obj\uwbmodule_com_common.o
 .text          0x00000000        0x0 ..\obj\EXTI.o
 .data          0x00000000        0x0 ..\obj\EXTI.o
 .bss           0x00000000        0x0 ..\obj\EXTI.o
 .text          0x00000000        0x0 ..\obj\stm32f0xx_gpio.o
 .data          0x00000000        0x0 ..\obj\stm32f0xx_gpio.o
 .bss           0x00000000        0x0 ..\obj\stm32f0xx_gpio.o
 .text.GPIO_DeInit
                0x00000000       0xa4 ..\obj\stm32f0xx_gpio.o
 .text.GPIO_PinLockConfig
                0x00000000       0x24 ..\obj\stm32f0xx_gpio.o
 .text.GPIO_WriteBit
                0x00000000        0xc ..\obj\stm32f0xx_gpio.o
 .text.GPIO_Write
                0x00000000        0x4 ..\obj\stm32f0xx_gpio.o
 .text          0x00000000        0x0 ..\obj\stm32f0xx_comp.o
 .data          0x00000000        0x0 ..\obj\stm32f0xx_comp.o
 .bss           0x00000000        0x0 ..\obj\stm32f0xx_comp.o
 .text.COMP_DeInit
                0x00000000        0xc ..\obj\stm32f0xx_comp.o
 .text.COMP_Init
                0x00000000       0x34 ..\obj\stm32f0xx_comp.o
 .text.COMP_StructInit
                0x00000000       0x10 ..\obj\stm32f0xx_comp.o
 .text.COMP_Cmd
                0x00000000       0x28 ..\obj\stm32f0xx_comp.o
 .text.COMP_SwitchCmd
                0x00000000       0x1c ..\obj\stm32f0xx_comp.o
 .text.COMP_GetOutputLevel
                0x00000000       0x1c ..\obj\stm32f0xx_comp.o
 .text.COMP_WindowCmd
                0x00000000       0x20 ..\obj\stm32f0xx_comp.o
 .text.COMP_LockConfig
                0x00000000       0x18 ..\obj\stm32f0xx_comp.o
 .debug_info    0x00000000      0x25b ..\obj\stm32f0xx_comp.o
 .debug_abbrev  0x00000000      0x15a ..\obj\stm32f0xx_comp.o
 .debug_aranges
                0x00000000       0x58 ..\obj\stm32f0xx_comp.o
 .debug_ranges  0x00000000       0x48 ..\obj\stm32f0xx_comp.o
 .debug_line    0x00000000      0x202 ..\obj\stm32f0xx_comp.o
 .debug_str     0x00000000      0x289 ..\obj\stm32f0xx_comp.o
 .comment       0x00000000       0x71 ..\obj\stm32f0xx_comp.o
 .ARM.attributes
                0x00000000       0x31 ..\obj\stm32f0xx_comp.o
 .debug_frame   0x00000000       0x9c ..\obj\stm32f0xx_comp.o
 .text          0x00000000        0x0 ..\obj\module_api_sys.o
 .text.sys_is_mcu_stopped
                0x00000000       0x24 ..\obj\module_api_sys.o
 .text.sys_get_mcu_state
                0x00000000       0x20 ..\obj\module_api_sys.o
 .text.sys_check_sysid_cache
                0x00000000       0x14 ..\obj\module_api_sys.o
 .text.sys_get_battery_data
                0x00000000       0x2c ..\obj\module_api_sys.o
 .text.sys_test_mcuid
                0x00000000        0x4 ..\obj\module_api_sys.o
 .text.sys_test_io
                0x00000000        0x4 ..\obj\module_api_sys.o
 .text.sys_test_voltage
                0x00000000        0x4 ..\obj\module_api_sys.o
 .text.sys_test_txtune
                0x00000000        0x4 ..\obj\module_api_sys.o
 .text.sys_test_lna
                0x00000000        0x4 ..\obj\module_api_sys.o
 .text.sys_test_rxtune
                0x00000000        0x4 ..\obj\module_api_sys.o
 .text.sys_test_txidle
                0x00000000        0x4 ..\obj\module_api_sys.o
 .text.sys_test_rxidle
                0x00000000        0x4 ..\obj\module_api_sys.o
 .text.sys_test_pm2
                0x00000000        0x4 ..\obj\module_api_sys.o
 .text.sys_test_txcont
                0x00000000        0x4 ..\obj\module_api_sys.o
 .text.sys_test_sensitivity
                0x00000000        0x4 ..\obj\module_api_sys.o
 .text.sys_test_ranging
                0x00000000        0x4 ..\obj\module_api_sys.o
 .text.sys_test_production
                0x00000000        0x4 ..\obj\module_api_sys.o
 .text          0x00000000        0x0 ..\obj\stm32f0xx_rtc.o
 .data          0x00000000        0x0 ..\obj\stm32f0xx_rtc.o
 .bss           0x00000000        0x0 ..\obj\stm32f0xx_rtc.o
 .text.RTC_StructInit
                0x00000000        0xc ..\obj\stm32f0xx_rtc.o
 .text.RTC_WriteProtectionCmd
                0x00000000       0x18 ..\obj\stm32f0xx_rtc.o
 .text.RTC_RefClockCmd
                0x00000000       0x3c ..\obj\stm32f0xx_rtc.o
 .text.RTC_BypassShadowCmd
                0x00000000       0x28 ..\obj\stm32f0xx_rtc.o
 .text.RTC_TimeStructInit
                0x00000000        0xc ..\obj\stm32f0xx_rtc.o
 .text.RTC_SetDate
                0x00000000       0x9c ..\obj\stm32f0xx_rtc.o
 .text.RTC_DateStructInit
                0x00000000       0x10 ..\obj\stm32f0xx_rtc.o
 .text.RTC_GetDate
                0x00000000       0x44 ..\obj\stm32f0xx_rtc.o
 .text.RTC_GetAlarm
                0x00000000       0x70 ..\obj\stm32f0xx_rtc.o
 .text.RTC_GetAlarmSubSecond
                0x00000000       0x10 ..\obj\stm32f0xx_rtc.o
 .text.RTC_WakeUpClockConfig
                0x00000000       0x24 ..\obj\stm32f0xx_rtc.o
 .text.RTC_SetWakeUpCounter
                0x00000000       0x18 ..\obj\stm32f0xx_rtc.o
 .text.RTC_GetWakeUpCounter
                0x00000000        0xc ..\obj\stm32f0xx_rtc.o
 .text.RTC_WakeUpCmd
                0x00000000       0x58 ..\obj\stm32f0xx_rtc.o
 .text.RTC_DayLightSavingConfig
                0x00000000       0x2c ..\obj\stm32f0xx_rtc.o
 .text.RTC_GetStoreOperation
                0x00000000       0x10 ..\obj\stm32f0xx_rtc.o
 .text.RTC_OutputConfig
                0x00000000       0x2c ..\obj\stm32f0xx_rtc.o
 .text.RTC_CalibOutputCmd
                0x00000000       0x2c ..\obj\stm32f0xx_rtc.o
 .text.RTC_CalibOutputConfig
                0x00000000       0x28 ..\obj\stm32f0xx_rtc.o
 .text.RTC_SmoothCalibConfig
                0x00000000       0x48 ..\obj\stm32f0xx_rtc.o
 .text.RTC_TimeStampCmd
                0x00000000       0x30 ..\obj\stm32f0xx_rtc.o
 .text.RTC_GetTimeStamp
                0x00000000       0x78 ..\obj\stm32f0xx_rtc.o
 .text.RTC_GetTimeStampSubSecond
                0x00000000        0xc ..\obj\stm32f0xx_rtc.o
 .text.RTC_TamperTriggerConfig
                0x00000000       0x1c ..\obj\stm32f0xx_rtc.o
 .text.RTC_TamperCmd
                0x00000000       0x18 ..\obj\stm32f0xx_rtc.o
 .text.RTC_TamperFilterConfig
                0x00000000       0x1c ..\obj\stm32f0xx_rtc.o
 .text.RTC_TamperSamplingFreqConfig
                0x00000000       0x1c ..\obj\stm32f0xx_rtc.o
 .text.RTC_TamperPinsPrechargeDuration
                0x00000000       0x1c ..\obj\stm32f0xx_rtc.o
 .text.RTC_TimeStampOnTamperDetectionCmd
                0x00000000       0x1c ..\obj\stm32f0xx_rtc.o
 .text.RTC_TamperPullUpCmd
                0x00000000       0x20 ..\obj\stm32f0xx_rtc.o
 .text.RTC_WriteBackupRegister
                0x00000000       0x20 ..\obj\stm32f0xx_rtc.o
 .text.RTC_ReadBackupRegister
                0x00000000       0x20 ..\obj\stm32f0xx_rtc.o
 .text.RTC_OutputTypeConfig
                0x00000000       0x1c ..\obj\stm32f0xx_rtc.o
 .text.RTC_SynchroShiftConfig
                0x00000000       0x54 ..\obj\stm32f0xx_rtc.o
 .text.RTC_GetFlagStatus
                0x00000000       0x1c ..\obj\stm32f0xx_rtc.o
 .text          0x00000000        0x0 ..\obj\syscalls.o
 .data          0x00000000        0x0 ..\obj\syscalls.o
 .text.link     0x00000000        0x8 ..\obj\syscalls.o
 .text._close   0x00000000        0x8 ..\obj\syscalls.o
 .text._fstat   0x00000000        0xc ..\obj\syscalls.o
 .text._isatty  0x00000000        0x4 ..\obj\syscalls.o
 .text._lseek   0x00000000        0x4 ..\obj\syscalls.o
 .text._read    0x00000000        0x4 ..\obj\syscalls.o
 .text._write   0x00000000        0x4 ..\obj\syscalls.o
 .text.abort    0x00000000        0x4 ..\obj\syscalls.o
 .text          0x00000000        0x0 ..\obj\stm32f0xx_usart.o
 .data          0x00000000        0x0 ..\obj\stm32f0xx_usart.o
 .bss           0x00000000        0x0 ..\obj\stm32f0xx_usart.o
 .text.USART_StructInit
                0x00000000       0x18 ..\obj\stm32f0xx_usart.o
 .text.USART_ClockInit
                0x00000000       0x20 ..\obj\stm32f0xx_usart.o
 .text.USART_ClockStructInit
                0x00000000        0xc ..\obj\stm32f0xx_usart.o
 .text.USART_DirectionModeCmd
                0x00000000       0x14 ..\obj\stm32f0xx_usart.o
 .text.USART_OverSampling8Cmd
                0x00000000       0x1c ..\obj\stm32f0xx_usart.o
 .text.USART_OneBitMethodCmd
                0x00000000       0x1c ..\obj\stm32f0xx_usart.o
 .text.USART_MSBFirstCmd
                0x00000000       0x1c ..\obj\stm32f0xx_usart.o
 .text.USART_DataInvCmd
                0x00000000       0x1c ..\obj\stm32f0xx_usart.o
 .text.USART_InvPinCmd
                0x00000000       0x14 ..\obj\stm32f0xx_usart.o
 .text.USART_SWAPPinCmd
                0x00000000       0x1c ..\obj\stm32f0xx_usart.o
 .text.USART_ReceiverTimeOutCmd
                0x00000000       0x1c ..\obj\stm32f0xx_usart.o
 .text.USART_SetReceiverTimeOut
                0x00000000       0x10 ..\obj\stm32f0xx_usart.o
 .text.USART_SetPrescaler
                0x00000000       0x14 ..\obj\stm32f0xx_usart.o
 .text.USART_STOPModeCmd
                0x00000000       0x14 ..\obj\stm32f0xx_usart.o
 .text.USART_StopModeWakeUpSourceConfig
                0x00000000       0x14 ..\obj\stm32f0xx_usart.o
 .text.USART_AutoBaudRateCmd
                0x00000000       0x1c ..\obj\stm32f0xx_usart.o
 .text.USART_AutoBaudRateConfig
                0x00000000       0x14 ..\obj\stm32f0xx_usart.o
 .text.USART_SetAddress
                0x00000000       0x14 ..\obj\stm32f0xx_usart.o
 .text.USART_MuteModeCmd
                0x00000000       0x1c ..\obj\stm32f0xx_usart.o
 .text.USART_MuteModeWakeUpConfig
                0x00000000       0x14 ..\obj\stm32f0xx_usart.o
 .text.USART_AddressDetectionConfig
                0x00000000       0x10 ..\obj\stm32f0xx_usart.o
 .text.USART_LINBreakDetectLengthConfig
                0x00000000       0x10 ..\obj\stm32f0xx_usart.o
 .text.USART_LINCmd
                0x00000000       0x1c ..\obj\stm32f0xx_usart.o
 .text.USART_HalfDuplexCmd
                0x00000000       0x14 ..\obj\stm32f0xx_usart.o
 .text.USART_SetGuardTime
                0x00000000       0x14 ..\obj\stm32f0xx_usart.o
 .text.USART_SmartCardCmd
                0x00000000       0x14 ..\obj\stm32f0xx_usart.o
 .text.USART_SmartCardNACKCmd
                0x00000000       0x14 ..\obj\stm32f0xx_usart.o
 .text.USART_SetAutoRetryCount
                0x00000000       0x18 ..\obj\stm32f0xx_usart.o
 .text.USART_SetBlockLength
                0x00000000       0x14 ..\obj\stm32f0xx_usart.o
 .text.USART_IrDAConfig
                0x00000000       0x10 ..\obj\stm32f0xx_usart.o
 .text.USART_IrDACmd
                0x00000000       0x14 ..\obj\stm32f0xx_usart.o
 .text.USART_DECmd
                0x00000000       0x1c ..\obj\stm32f0xx_usart.o
 .text.USART_DEPolarityConfig
                0x00000000       0x14 ..\obj\stm32f0xx_usart.o
 .text.USART_SetDEAssertionTime
                0x00000000       0x18 ..\obj\stm32f0xx_usart.o
 .text.USART_SetDEDeassertionTime
                0x00000000       0x18 ..\obj\stm32f0xx_usart.o
 .text.USART_DMACmd
                0x00000000       0x14 ..\obj\stm32f0xx_usart.o
 .text.USART_DMAReceptionErrorConfig
                0x00000000       0x14 ..\obj\stm32f0xx_usart.o
 .text.USART_ITConfig
                0x00000000       0x30 ..\obj\stm32f0xx_usart.o
 .text.USART_RequestCmd
                0x00000000       0x18 ..\obj\stm32f0xx_usart.o
 .text.USART_OverrunDetectionConfig
                0x00000000       0x14 ..\obj\stm32f0xx_usart.o
 .text.USART_GetITStatus
                0x00000000       0x40 ..\obj\stm32f0xx_usart.o
 .text.USART_ClearITPendingBit
                0x00000000        0xc ..\obj\stm32f0xx_usart.o
 .text          0x00000000        0x0 ..\obj\stm32f0xx_crs.o
 .data          0x00000000        0x0 ..\obj\stm32f0xx_crs.o
 .bss           0x00000000        0x0 ..\obj\stm32f0xx_crs.o
 .text.CRS_DeInit
                0x00000000       0x18 ..\obj\stm32f0xx_crs.o
 .text.CRS_AdjustHSI48CalibrationValue
                0x00000000       0x1c ..\obj\stm32f0xx_crs.o
 .text.CRS_FrequencyErrorCounterCmd
                0x00000000       0x1c ..\obj\stm32f0xx_crs.o
 .text.CRS_AutomaticCalibrationCmd
                0x00000000       0x1c ..\obj\stm32f0xx_crs.o
 .text.CRS_SoftwareSynchronizationGenerate
                0x00000000       0x10 ..\obj\stm32f0xx_crs.o
 .text.CRS_FrequencyErrorCounterReload
                0x00000000       0x18 ..\obj\stm32f0xx_crs.o
 .text.CRS_FrequencyErrorLimitConfig
                0x00000000       0x1c ..\obj\stm32f0xx_crs.o
 .text.CRS_SynchronizationPrescalerConfig
                0x00000000       0x1c ..\obj\stm32f0xx_crs.o
 .text.CRS_SynchronizationSourceConfig
                0x00000000       0x1c ..\obj\stm32f0xx_crs.o
 .text.CRS_SynchronizationPolarityConfig
                0x00000000       0x18 ..\obj\stm32f0xx_crs.o
 .text.CRS_GetReloadValue
                0x00000000        0xc ..\obj\stm32f0xx_crs.o
 .text.CRS_GetHSI48CalibrationValue
                0x00000000       0x10 ..\obj\stm32f0xx_crs.o
 .text.CRS_GetFrequencyErrorValue
                0x00000000       0x10 ..\obj\stm32f0xx_crs.o
 .text.CRS_GetFrequencyErrorDirection
                0x00000000       0x10 ..\obj\stm32f0xx_crs.o
 .text.CRS_ITConfig
                0x00000000       0x18 ..\obj\stm32f0xx_crs.o
 .text.CRS_GetFlagStatus
                0x00000000       0x10 ..\obj\stm32f0xx_crs.o
 .text.CRS_ClearFlag
                0x00000000       0x20 ..\obj\stm32f0xx_crs.o
 .text.CRS_GetITStatus
                0x00000000       0x10 ..\obj\stm32f0xx_crs.o
 .text.CRS_ClearITPendingBit
                0x00000000       0x20 ..\obj\stm32f0xx_crs.o
 .debug_info    0x00000000      0x382 ..\obj\stm32f0xx_crs.o
 .debug_abbrev  0x00000000      0x163 ..\obj\stm32f0xx_crs.o
 .debug_aranges
                0x00000000       0xb0 ..\obj\stm32f0xx_crs.o
 .debug_ranges  0x00000000       0xa0 ..\obj\stm32f0xx_crs.o
 .debug_line    0x00000000      0x288 ..\obj\stm32f0xx_crs.o
 .debug_str     0x00000000      0x411 ..\obj\stm32f0xx_crs.o
 .comment       0x00000000       0x71 ..\obj\stm32f0xx_crs.o
 .ARM.attributes
                0x00000000       0x31 ..\obj\stm32f0xx_crs.o
 .debug_frame   0x00000000      0x148 ..\obj\stm32f0xx_crs.o
 .text          0x00000000        0x0 ..\obj\stm32f0xx_tim.o
 .data          0x00000000        0x0 ..\obj\stm32f0xx_tim.o
 .bss           0x00000000        0x0 ..\obj\stm32f0xx_tim.o
 .text.TIM_CounterModeConfig
                0x00000000       0x10 ..\obj\stm32f0xx_tim.o
 .text.TIM_SetAutoreload
                0x00000000        0x4 ..\obj\stm32f0xx_tim.o
 .text.TIM_GetCounter
                0x00000000        0x4 ..\obj\stm32f0xx_tim.o
 .text.TIM_GetPrescaler
                0x00000000        0x8 ..\obj\stm32f0xx_tim.o
 .text.TIM_UpdateDisableConfig
                0x00000000       0x18 ..\obj\stm32f0xx_tim.o
 .text.TIM_UpdateRequestConfig
                0x00000000       0x18 ..\obj\stm32f0xx_tim.o
 .text.TIM_ARRPreloadConfig
                0x00000000       0x18 ..\obj\stm32f0xx_tim.o
 .text.TIM_SelectOnePulseMode
                0x00000000       0x14 ..\obj\stm32f0xx_tim.o
 .text.TIM_SetClockDivision
                0x00000000       0x18 ..\obj\stm32f0xx_tim.o
 .text.TIM_BDTRConfig
                0x00000000       0x20 ..\obj\stm32f0xx_tim.o
 .text.TIM_BDTRStructInit
                0x00000000       0x14 ..\obj\stm32f0xx_tim.o
 .text.TIM_CtrlPWMOutputs
                0x00000000       0x20 ..\obj\stm32f0xx_tim.o
 .text.TIM_OC1Init
                0x00000000       0x80 ..\obj\stm32f0xx_tim.o
 .text.TIM_OC2Init
                0x00000000       0x98 ..\obj\stm32f0xx_tim.o
 .text.TIM_OC3Init
                0x00000000       0x84 ..\obj\stm32f0xx_tim.o
 .text.TIM_OC4Init
                0x00000000       0x64 ..\obj\stm32f0xx_tim.o
 .text.TIM_OCStructInit
                0x00000000       0x14 ..\obj\stm32f0xx_tim.o
 .text.TIM_SelectOCxM
                0x00000000       0x4c ..\obj\stm32f0xx_tim.o
 .text.TIM_SetCompare1
                0x00000000        0x4 ..\obj\stm32f0xx_tim.o
 .text.TIM_SetCompare2
                0x00000000        0x4 ..\obj\stm32f0xx_tim.o
 .text.TIM_SetCompare3
                0x00000000        0x4 ..\obj\stm32f0xx_tim.o
 .text.TIM_SetCompare4
                0x00000000        0x4 ..\obj\stm32f0xx_tim.o
 .text.TIM_ForcedOC1Config
                0x00000000       0x10 ..\obj\stm32f0xx_tim.o
 .text.TIM_ForcedOC2Config
                0x00000000       0x18 ..\obj\stm32f0xx_tim.o
 .text.TIM_ForcedOC3Config
                0x00000000       0x10 ..\obj\stm32f0xx_tim.o
 .text.TIM_ForcedOC4Config
                0x00000000       0x18 ..\obj\stm32f0xx_tim.o
 .text.TIM_CCPreloadControl
                0x00000000       0x18 ..\obj\stm32f0xx_tim.o
 .text.TIM_OC1PreloadConfig
                0x00000000       0x10 ..\obj\stm32f0xx_tim.o
 .text.TIM_OC2PreloadConfig
                0x00000000       0x18 ..\obj\stm32f0xx_tim.o
 .text.TIM_OC3PreloadConfig
                0x00000000       0x10 ..\obj\stm32f0xx_tim.o
 .text.TIM_OC4PreloadConfig
                0x00000000       0x18 ..\obj\stm32f0xx_tim.o
 .text.TIM_OC1FastConfig
                0x00000000       0x10 ..\obj\stm32f0xx_tim.o
 .text.TIM_OC2FastConfig
                0x00000000       0x18 ..\obj\stm32f0xx_tim.o
 .text.TIM_OC3FastConfig
                0x00000000       0x10 ..\obj\stm32f0xx_tim.o
 .text.TIM_OC4FastConfig
                0x00000000       0x18 ..\obj\stm32f0xx_tim.o
 .text.TIM_ClearOC1Ref
                0x00000000       0x10 ..\obj\stm32f0xx_tim.o
 .text.TIM_ClearOC2Ref
                0x00000000       0x10 ..\obj\stm32f0xx_tim.o
 .text.TIM_ClearOC3Ref
                0x00000000       0x10 ..\obj\stm32f0xx_tim.o
 .text.TIM_ClearOC4Ref
                0x00000000       0x10 ..\obj\stm32f0xx_tim.o
 .text.TIM_OC1PolarityConfig
                0x00000000       0x10 ..\obj\stm32f0xx_tim.o
 .text.TIM_OC1NPolarityConfig
                0x00000000       0x10 ..\obj\stm32f0xx_tim.o
 .text.TIM_OC2PolarityConfig
                0x00000000       0x14 ..\obj\stm32f0xx_tim.o
 .text.TIM_OC2NPolarityConfig
                0x00000000       0x14 ..\obj\stm32f0xx_tim.o
 .text.TIM_OC3PolarityConfig
                0x00000000       0x18 ..\obj\stm32f0xx_tim.o
 .text.TIM_OC3NPolarityConfig
                0x00000000       0x18 ..\obj\stm32f0xx_tim.o
 .text.TIM_OC4PolarityConfig
                0x00000000       0x18 ..\obj\stm32f0xx_tim.o
 .text.TIM_SelectOCREFClear
                0x00000000       0x14 ..\obj\stm32f0xx_tim.o
 .text.TIM_CCxCmd
                0x00000000       0x1c ..\obj\stm32f0xx_tim.o
 .text.TIM_CCxNCmd
                0x00000000       0x1c ..\obj\stm32f0xx_tim.o
 .text.TIM_SelectCOM
                0x00000000       0x18 ..\obj\stm32f0xx_tim.o
 .text.TIM_ICStructInit
                0x00000000       0x10 ..\obj\stm32f0xx_tim.o
 .text.TIM_PWMIConfig
                0x00000000       0x7c ..\obj\stm32f0xx_tim.o
 .text.TIM_GetCapture2
                0x00000000        0x4 ..\obj\stm32f0xx_tim.o
 .text.TIM_GetCapture3
                0x00000000        0x4 ..\obj\stm32f0xx_tim.o
 .text.TIM_GetCapture4
                0x00000000        0x4 ..\obj\stm32f0xx_tim.o
 .text.TIM_GenerateEvent
                0x00000000        0x4 ..\obj\stm32f0xx_tim.o
 .text.TIM_DMAConfig
                0x00000000        0x8 ..\obj\stm32f0xx_tim.o
 .text.TIM_DMACmd
                0x00000000       0x14 ..\obj\stm32f0xx_tim.o
 .text.TIM_SelectCCDMA
                0x00000000       0x18 ..\obj\stm32f0xx_tim.o
 .text.TIM_InternalClockConfig
                0x00000000        0xc ..\obj\stm32f0xx_tim.o
 .text.TIM_ITRxExternalClockConfig
                0x00000000       0x14 ..\obj\stm32f0xx_tim.o
 .text.TIM_TIxExternalClockConfig
                0x00000000       0x2c ..\obj\stm32f0xx_tim.o
 .text.TIM_ETRClockMode1Config
                0x00000000       0x18 ..\obj\stm32f0xx_tim.o
 .text.TIM_ETRClockMode2Config
                0x00000000       0x18 ..\obj\stm32f0xx_tim.o
 .text.TIM_SelectInputTrigger
                0x00000000       0x10 ..\obj\stm32f0xx_tim.o
 .text.TIM_SelectSlaveMode
                0x00000000       0x14 ..\obj\stm32f0xx_tim.o
 .text.TIM_SelectMasterSlaveMode
                0x00000000       0x14 ..\obj\stm32f0xx_tim.o
 .text.TIM_ETRConfig
                0x00000000       0x14 ..\obj\stm32f0xx_tim.o
 .text.TIM_EncoderInterfaceConfig
                0x00000000       0x34 ..\obj\stm32f0xx_tim.o
 .text.TIM_SelectHallSensor
                0x00000000       0x18 ..\obj\stm32f0xx_tim.o
 .text          0x00000000        0x0 ..\obj\shell.o
 .text          0x00000000        0x0 ..\obj\system_stm32f0xx.o
 .data          0x00000000       0x14 ..\obj\system_stm32f0xx.o
 .bss           0x00000000        0x0 ..\obj\system_stm32f0xx.o
 .text.SystemCoreClockUpdate
                0x00000000       0x80 ..\obj\system_stm32f0xx.o
 .text          0x00000000        0x0 ..\obj\SPI.o
 .data          0x00000000        0x0 ..\obj\SPI.o
 .bss           0x00000000        0x0 ..\obj\SPI.o
 .text.HAL_SPI1_Init
                0x00000000        0x4 ..\obj\SPI.o
 .text.HAL_SPI2_Init_Slave
                0x00000000        0x4 ..\obj\SPI.o
 .text.HAL_SPI1_write_buffer
                0x00000000        0x4 ..\obj\SPI.o
 .text.HAL_SPI1_read_buffer
                0x00000000        0x4 ..\obj\SPI.o
 .text.HAL_SPI1_write_burst
                0x00000000        0x4 ..\obj\SPI.o
 .text.HAL_SPI1_read_burst
                0x00000000        0x4 ..\obj\SPI.o
 .text          0x00000000        0x0 ..\obj\osal_math.o
 .data          0x00000000        0x0 ..\obj\osal_math.o
 .bss           0x00000000        0x0 ..\obj\osal_math.o
 .text.OSAL_int_sqrt
                0x00000000       0x5c ..\obj\osal_math.o
 .text          0x00000000        0x0 ..\obj\stm32f0xx_flash.o
 .data          0x00000000        0x0 ..\obj\stm32f0xx_flash.o
 .bss           0x00000000        0x0 ..\obj\stm32f0xx_flash.o
 .text.FLASH_SetLatency
                0x00000000       0x14 ..\obj\stm32f0xx_flash.o
 .text.FLASH_PrefetchBufferCmd
                0x00000000       0x1c ..\obj\stm32f0xx_flash.o
 .text.FLASH_GetPrefetchBufferStatus
                0x00000000       0x10 ..\obj\stm32f0xx_flash.o
 .text.FLASH_Unlock
                0x00000000       0x20 ..\obj\stm32f0xx_flash.o
 .text.FLASH_Lock
                0x00000000       0x10 ..\obj\stm32f0xx_flash.o
 .text.FLASH_ErasePage
                0x00000000       0x38 ..\obj\stm32f0xx_flash.o
 .text.FLASH_EraseAllPages
                0x00000000       0x34 ..\obj\stm32f0xx_flash.o
 .text.FLASH_ProgramWord
                0x00000000       0x60 ..\obj\stm32f0xx_flash.o
 .text.FLASH_ProgramHalfWord
                0x00000000       0x3c ..\obj\stm32f0xx_flash.o
 .text.FLASH_OB_Unlock
                0x00000000       0x20 ..\obj\stm32f0xx_flash.o
 .text.FLASH_OB_Lock
                0x00000000       0x14 ..\obj\stm32f0xx_flash.o
 .text.FLASH_OB_Launch
                0x00000000       0x14 ..\obj\stm32f0xx_flash.o
 .text.FLASH_OB_Erase
                0x00000000       0x74 ..\obj\stm32f0xx_flash.o
 .text.FLASH_OB_EnableWRP
                0x00000000       0x94 ..\obj\stm32f0xx_flash.o
 .text.FLASH_OB_RDPConfig
                0x00000000       0x5c ..\obj\stm32f0xx_flash.o
 .text.FLASH_OB_UserConfig
                0x00000000       0x5c ..\obj\stm32f0xx_flash.o
 .text.FLASH_OB_BOOTConfig
                0x00000000       0x40 ..\obj\stm32f0xx_flash.o
 .text.FLASH_OB_BOOT0Config
                0x00000000       0x40 ..\obj\stm32f0xx_flash.o
 .text.FLASH_OB_BOOT0SWConfig
                0x00000000       0x40 ..\obj\stm32f0xx_flash.o
 .text.FLASH_OB_VDDAConfig
                0x00000000       0x40 ..\obj\stm32f0xx_flash.o
 .text.FLASH_OB_SRAMParityConfig
                0x00000000       0x40 ..\obj\stm32f0xx_flash.o
 .text.FLASH_OB_WriteUser
                0x00000000       0x3c ..\obj\stm32f0xx_flash.o
 .text.FLASH_OB_ProgramData
                0x00000000       0x40 ..\obj\stm32f0xx_flash.o
 .text.FLASH_OB_GetUser
                0x00000000       0x10 ..\obj\stm32f0xx_flash.o
 .text.FLASH_OB_GetWRP
                0x00000000        0xc ..\obj\stm32f0xx_flash.o
 .text.FLASH_OB_GetRDP
                0x00000000       0x14 ..\obj\stm32f0xx_flash.o
 .text.FLASH_ITConfig
                0x00000000       0x18 ..\obj\stm32f0xx_flash.o
 .text.FLASH_GetFlagStatus
                0x00000000       0x14 ..\obj\stm32f0xx_flash.o
 .text.FLASH_ClearFlag
                0x00000000        0xc ..\obj\stm32f0xx_flash.o
 .text.FLASH_GetStatus
                0x00000000       0x24 ..\obj\stm32f0xx_flash.o
 .text.FLASH_WaitForLastOperation
                0x00000000       0x20 ..\obj\stm32f0xx_flash.o
 .debug_info    0x00000000      0x7d6 ..\obj\stm32f0xx_flash.o
 .debug_abbrev  0x00000000      0x1e2 ..\obj\stm32f0xx_flash.o
 .debug_aranges
                0x00000000      0x110 ..\obj\stm32f0xx_flash.o
 .debug_ranges  0x00000000      0x100 ..\obj\stm32f0xx_flash.o
 .debug_line    0x00000000      0x4d9 ..\obj\stm32f0xx_flash.o
 .debug_str     0x00000000      0x5ab ..\obj\stm32f0xx_flash.o
 .comment       0x00000000       0x71 ..\obj\stm32f0xx_flash.o
 .ARM.attributes
                0x00000000       0x31 ..\obj\stm32f0xx_flash.o
 .debug_frame   0x00000000      0x2dc ..\obj\stm32f0xx_flash.o
 .text          0x00000000        0x0 ..\obj\osal_stdlib.o
 .data          0x00000000       0x10 ..\obj\osal_stdlib.o
 .bss           0x00000000        0x0 ..\obj\osal_stdlib.o
 .text.__OSAL_malloc_constrained
                0x00000000       0x24 ..\obj\osal_stdlib.o
 .text.__OSAL_free_constrained
                0x00000000       0x1c ..\obj\osal_stdlib.o
 .text.OSAL_memcmp
                0x00000000       0x28 ..\obj\osal_stdlib.o
 .text.OSAL_random
                0x00000000      0x13c ..\obj\osal_stdlib.o
 .text          0x00000000        0x0 ..\obj\stm32f0xx_exti.o
 .data          0x00000000        0x0 ..\obj\stm32f0xx_exti.o
 .bss           0x00000000        0x0 ..\obj\stm32f0xx_exti.o
 .text.EXTI_GenerateSWInterrupt
                0x00000000       0x10 ..\obj\stm32f0xx_exti.o
 .text.EXTI_GetFlagStatus
                0x00000000       0x14 ..\obj\stm32f0xx_exti.o
 .text.EXTI_ClearFlag
                0x00000000        0xc ..\obj\stm32f0xx_exti.o
 .text          0x00000000        0x0 ..\obj\stm32f0xx_wwdg.o
 .data          0x00000000        0x0 ..\obj\stm32f0xx_wwdg.o
 .bss           0x00000000        0x0 ..\obj\stm32f0xx_wwdg.o
 .text.WWDG_DeInit
                0x00000000       0x18 ..\obj\stm32f0xx_wwdg.o
 .text.WWDG_SetPrescaler
                0x00000000       0x18 ..\obj\stm32f0xx_wwdg.o
 .text.WWDG_SetWindowValue
                0x00000000       0x24 ..\obj\stm32f0xx_wwdg.o
 .text.WWDG_EnableIT
                0x00000000       0x14 ..\obj\stm32f0xx_wwdg.o
 .text.WWDG_SetCounter
                0x00000000       0x10 ..\obj\stm32f0xx_wwdg.o
 .text.WWDG_Enable
                0x00000000       0x10 ..\obj\stm32f0xx_wwdg.o
 .text.WWDG_GetFlagStatus
                0x00000000       0x10 ..\obj\stm32f0xx_wwdg.o
 .text.WWDG_ClearFlag
                0x00000000        0xc ..\obj\stm32f0xx_wwdg.o
 .debug_info    0x00000000      0x208 ..\obj\stm32f0xx_wwdg.o
 .debug_abbrev  0x00000000      0x13a ..\obj\stm32f0xx_wwdg.o
 .debug_aranges
                0x00000000       0x58 ..\obj\stm32f0xx_wwdg.o
 .debug_ranges  0x00000000       0x48 ..\obj\stm32f0xx_wwdg.o
 .debug_line    0x00000000      0x1a8 ..\obj\stm32f0xx_wwdg.o
 .debug_str     0x00000000      0x24b ..\obj\stm32f0xx_wwdg.o
 .comment       0x00000000       0x71 ..\obj\stm32f0xx_wwdg.o
 .ARM.attributes
                0x00000000       0x31 ..\obj\stm32f0xx_wwdg.o
 .debug_frame   0x00000000       0x9c ..\obj\stm32f0xx_wwdg.o
 .text          0x00000000        0x0 ..\obj\ShellCommand_system.o
 .data          0x00000000        0x0 ..\obj\ShellCommand_system.o
 .bss           0x00000000        0x0 ..\obj\ShellCommand_system.o
 .text.shellcommand_system_Process
                0x00000000        0x4 ..\obj\ShellCommand_system.o
 .text          0x00000000        0x0 ..\obj\stm32f0xx_dbgmcu.o
 .data          0x00000000        0x0 ..\obj\stm32f0xx_dbgmcu.o
 .bss           0x00000000        0x0 ..\obj\stm32f0xx_dbgmcu.o
 .text.DBGMCU_GetREVID
                0x00000000        0xc ..\obj\stm32f0xx_dbgmcu.o
 .text.DBGMCU_GetDEVID
                0x00000000       0x10 ..\obj\stm32f0xx_dbgmcu.o
 .text.DBGMCU_Config
                0x00000000       0x18 ..\obj\stm32f0xx_dbgmcu.o
 .text.DBGMCU_APB1PeriphConfig
                0x00000000       0x18 ..\obj\stm32f0xx_dbgmcu.o
 .text.DBGMCU_APB2PeriphConfig
                0x00000000       0x18 ..\obj\stm32f0xx_dbgmcu.o
 .debug_info    0x00000000      0x1a0 ..\obj\stm32f0xx_dbgmcu.o
 .debug_abbrev  0x00000000       0xe5 ..\obj\stm32f0xx_dbgmcu.o
 .debug_aranges
                0x00000000       0x40 ..\obj\stm32f0xx_dbgmcu.o
 .debug_ranges  0x00000000       0x30 ..\obj\stm32f0xx_dbgmcu.o
 .debug_line    0x00000000      0x16e ..\obj\stm32f0xx_dbgmcu.o
 .debug_str     0x00000000      0x215 ..\obj\stm32f0xx_dbgmcu.o
 .comment       0x00000000       0x71 ..\obj\stm32f0xx_dbgmcu.o
 .ARM.attributes
                0x00000000       0x31 ..\obj\stm32f0xx_dbgmcu.o
 .debug_frame   0x00000000       0x60 ..\obj\stm32f0xx_dbgmcu.o
 .text          0x00000000        0x0 ..\obj\ShellCommand_misc.o
 .text          0x00000000        0x0 ..\obj\osal_comp.o
 .data          0x00000000        0x0 ..\obj\osal_comp.o
 .bss           0x00000000        0x0 ..\obj\osal_comp.o
 .text.OSAL_islower
                0x00000000       0x30 ..\obj\osal_comp.o
 .text.OSAL_isupper
                0x00000000       0x30 ..\obj\osal_comp.o
 .debug_info    0x00000000       0xee ..\obj\osal_comp.o
 .debug_abbrev  0x00000000       0x76 ..\obj\osal_comp.o
 .debug_aranges
                0x00000000       0x28 ..\obj\osal_comp.o
 .debug_ranges  0x00000000       0x18 ..\obj\osal_comp.o
 .debug_line    0x00000000      0x187 ..\obj\osal_comp.o
 .debug_str     0x00000000      0x18b ..\obj\osal_comp.o
 .comment       0x00000000       0x71 ..\obj\osal_comp.o
 .ARM.attributes
                0x00000000       0x31 ..\obj\osal_comp.o
 .debug_frame   0x00000000       0x50 ..\obj\osal_comp.o
 .text          0x00000000        0x0 ..\obj\uwbmodule_com_specific.o
 .data          0x00000000        0x0 ..\obj\uwbmodule_com_specific.o
 .bss           0x00000000        0x0 ..\obj\uwbmodule_com_specific.o
 .text          0x00000000        0x0 ..\obj\stm32f0xx_syscfg.o
 .data          0x00000000        0x0 ..\obj\stm32f0xx_syscfg.o
 .bss           0x00000000        0x0 ..\obj\stm32f0xx_syscfg.o
 .text.SYSCFG_MemoryRemapConfig
                0x00000000       0x14 ..\obj\stm32f0xx_syscfg.o
 .text.SYSCFG_DMAChannelRemapConfig
                0x00000000       0x18 ..\obj\stm32f0xx_syscfg.o
 .text.SYSCFG_I2CFastModePlusConfig
                0x00000000       0x18 ..\obj\stm32f0xx_syscfg.o
 .text.SYSCFG_BreakConfig
                0x00000000       0x10 ..\obj\stm32f0xx_syscfg.o
 .text.SYSCFG_GetFlagStatus
                0x00000000       0x10 ..\obj\stm32f0xx_syscfg.o
 .text.SYSCFG_ClearFlag
                0x00000000       0x10 ..\obj\stm32f0xx_syscfg.o
 .text          0x00000000        0x0 ..\obj\RTC.o
 .text          0x00000000        0x0 ..\obj\stm32f0xx_pwr.o
 .data          0x00000000        0x0 ..\obj\stm32f0xx_pwr.o
 .text.PWR_PVDLevelConfig
                0x00000000       0x14 ..\obj\stm32f0xx_pwr.o
 .text.PWR_PVDCmd
                0x00000000       0x1c ..\obj\stm32f0xx_pwr.o
 .text.PWR_WakeUpPinCmd
                0x00000000       0x18 ..\obj\stm32f0xx_pwr.o
 .text.PWR_EnterSleepMode
                0x00000000       0x3c ..\obj\stm32f0xx_pwr.o
 .text.PWR_GetFlagStatus
                0x00000000       0x14 ..\obj\stm32f0xx_pwr.o
 .text          0x00000000        0x0 ..\obj\USART.o
 .data          0x00000000        0x0 ..\obj\USART.o
 .text.HAL_USART3_Init
                0x00000000        0x4 ..\obj\USART.o
 .text.HAL_USART3_Sync_write_buffer
                0x00000000        0x4 ..\obj\USART.o
 .text.HAL_USART3_Sync_read_buffer
                0x00000000        0x4 ..\obj\USART.o
 .text.HAL_USART4_Init
                0x00000000        0x4 ..\obj\USART.o
 .text          0x00000000        0x0 ..\obj\stm32f0xx_can.o
 .data          0x00000000        0x0 ..\obj\stm32f0xx_can.o
 .bss           0x00000000        0x0 ..\obj\stm32f0xx_can.o
 .text.CAN_DeInit
                0x00000000       0x18 ..\obj\stm32f0xx_can.o
 .text.CAN_Init
                0x00000000       0xf0 ..\obj\stm32f0xx_can.o
 .text.CAN_FilterInit
                0x00000000       0xe4 ..\obj\stm32f0xx_can.o
 .text.CAN_StructInit
                0x00000000       0x20 ..\obj\stm32f0xx_can.o
 .text.CAN_SlaveStartBank
                0x00000000       0x30 ..\obj\stm32f0xx_can.o
 .text.CAN_DBGFreeze
                0x00000000       0x1c ..\obj\stm32f0xx_can.o
 .text.CAN_TTComModeCmd
                0x00000000       0x58 ..\obj\stm32f0xx_can.o
 .text.CAN_Transmit
                0x00000000       0xcc ..\obj\stm32f0xx_can.o
 .text.CAN_TransmitStatus
                0x00000000       0x58 ..\obj\stm32f0xx_can.o
 .text.CAN_CancelTransmit
                0x00000000       0x28 ..\obj\stm32f0xx_can.o
 .text.CAN_Receive
                0x00000000       0x8c ..\obj\stm32f0xx_can.o
 .text.CAN_FIFORelease
                0x00000000       0x18 ..\obj\stm32f0xx_can.o
 .text.CAN_MessagePending
                0x00000000       0x18 ..\obj\stm32f0xx_can.o
 .text.CAN_OperatingModeRequest
                0x00000000       0x84 ..\obj\stm32f0xx_can.o
 .text.CAN_Sleep
                0x00000000       0x1c ..\obj\stm32f0xx_can.o
 .text.CAN_WakeUp
                0x00000000       0x24 ..\obj\stm32f0xx_can.o
 .text.CAN_GetLastErrorCode
                0x00000000        0x8 ..\obj\stm32f0xx_can.o
 .text.CAN_GetReceiveErrorCounter
                0x00000000        0x8 ..\obj\stm32f0xx_can.o
 .text.CAN_GetLSBTransmitErrorCounter
                0x00000000        0x8 ..\obj\stm32f0xx_can.o
 .text.CAN_ITConfig
                0x00000000       0x14 ..\obj\stm32f0xx_can.o
 .text.CAN_GetFlagStatus
                0x00000000       0x34 ..\obj\stm32f0xx_can.o
 .text.CAN_ClearFlag
                0x00000000       0x30 ..\obj\stm32f0xx_can.o
 .text.CAN_GetITStatus
                0x00000000       0xbc ..\obj\stm32f0xx_can.o
 .text.CAN_ClearITPendingBit
                0x00000000       0x88 ..\obj\stm32f0xx_can.o
 .text.CheckITStatus
                0x00000000        0xc ..\obj\stm32f0xx_can.o
 .debug_info    0x00000000      0xaff ..\obj\stm32f0xx_can.o
 .debug_abbrev  0x00000000      0x1fa ..\obj\stm32f0xx_can.o
 .debug_aranges
                0x00000000       0xe0 ..\obj\stm32f0xx_can.o
 .debug_ranges  0x00000000       0xd0 ..\obj\stm32f0xx_can.o
 .debug_line    0x00000000      0x4e4 ..\obj\stm32f0xx_can.o
 .debug_str     0x00000000      0x6fe ..\obj\stm32f0xx_can.o
 .comment       0x00000000       0x71 ..\obj\stm32f0xx_can.o
 .ARM.attributes
                0x00000000       0x31 ..\obj\stm32f0xx_can.o
 .debug_frame   0x00000000      0x1f4 ..\obj\stm32f0xx_can.o
 .text          0x00000000        0x0 ..\obj\osal_trace_STM32.o
 .data          0x00000000        0x0 ..\obj\osal_trace_STM32.o
 .bss           0x00000000        0x0 ..\obj\osal_trace_STM32.o
 .text.VERB     0x00000000       0x38 ..\obj\osal_trace_STM32.o
 .text          0x00000000        0x0 ..\obj\stm32f0xx_misc.o
 .data          0x00000000        0x0 ..\obj\stm32f0xx_misc.o
 .bss           0x00000000        0x0 ..\obj\stm32f0xx_misc.o
 .text.NVIC_SystemLPConfig
                0x00000000       0x18 ..\obj\stm32f0xx_misc.o
 .text.SysTick_CLKSourceConfig
                0x00000000       0x1c ..\obj\stm32f0xx_misc.o
 .text          0x00000000        0x0 ..\obj\stm32f0xx_dac.o
 .data          0x00000000        0x0 ..\obj\stm32f0xx_dac.o
 .bss           0x00000000        0x0 ..\obj\stm32f0xx_dac.o
 .text.DAC_SoftwareTriggerCmd
                0x00000000       0x28 ..\obj\stm32f0xx_dac.o
 .text.DAC_DualSoftwareTriggerCmd
                0x00000000       0x1c ..\obj\stm32f0xx_dac.o
 .text.DAC_WaveGenerationCmd
                0x00000000       0x1c ..\obj\stm32f0xx_dac.o
 .text.DAC_SetChannel1Data
                0x00000000       0x20 ..\obj\stm32f0xx_dac.o
 .text.DAC_SetDualChannelData
                0x00000000       0x18 ..\obj\stm32f0xx_dac.o
 .text.DAC_GetDataOutputValue
                0x00000000       0x24 ..\obj\stm32f0xx_dac.o
 .text.DAC_DMACmd
                0x00000000       0x28 ..\obj\stm32f0xx_dac.o
 .text.DAC_ITConfig
                0x00000000       0x1c ..\obj\stm32f0xx_dac.o
 .text.DAC_GetFlagStatus
                0x00000000       0x18 ..\obj\stm32f0xx_dac.o
 .text.DAC_ClearFlag
                0x00000000        0xc ..\obj\stm32f0xx_dac.o
 .text.DAC_GetITStatus
                0x00000000       0x1c ..\obj\stm32f0xx_dac.o
 .text.DAC_ClearITPendingBit
                0x00000000        0xc ..\obj\stm32f0xx_dac.o
 .text          0x00000000        0x0 ..\obj\osal_time.o
 .data          0x00000000        0x0 ..\obj\osal_time.o
 .bss           0x00000000        0x0 ..\obj\osal_time.o
 .text.OSAL_timerisset
                0x00000000       0x28 ..\obj\osal_time.o
 .text          0x00000000        0x0 ..\..\..\..\LTA_LIB\libbespoon_LTA_official.a(afc_filter.o)
 .data          0x00000000        0x0 ..\..\..\..\LTA_LIB\libbespoon_LTA_official.a(afc_filter.o)
 .bss           0x00000000        0x0 ..\..\..\..\LTA_LIB\libbespoon_LTA_official.a(afc_filter.o)
 .text.filter_destroy_fromPool
                0x00000000       0x54 ..\..\..\..\LTA_LIB\libbespoon_LTA_official.a(afc_filter.o)
 .text.filter_create
                0x00000000        0xc ..\..\..\..\LTA_LIB\libbespoon_LTA_official.a(afc_filter.o)
 .text.filter_reset
                0x00000000       0x84 ..\..\..\..\LTA_LIB\libbespoon_LTA_official.a(afc_filter.o)
 .text.filter_destroy
                0x00000000        0xc ..\..\..\..\LTA_LIB\libbespoon_LTA_official.a(afc_filter.o)
 .text.filter_is_ready
                0x00000000       0x64 ..\..\..\..\LTA_LIB\libbespoon_LTA_official.a(afc_filter.o)
 .text.filter_get_kalman_raw_value
                0x00000000       0x14 ..\..\..\..\LTA_LIB\libbespoon_LTA_official.a(afc_filter.o)
 .text.filter_get_type
                0x00000000        0x4 ..\..\..\..\LTA_LIB\libbespoon_LTA_official.a(afc_filter.o)
 .text.filter_set_Q_coeff
                0x00000000       0x34 ..\..\..\..\LTA_LIB\libbespoon_LTA_official.a(afc_filter.o)
 COMMON         0x00000000       0x58 ..\..\..\..\LTA_LIB\libbespoon_LTA_official.a(afc_filter.o)
 .text          0x00000000        0x0 ..\..\..\..\LTA_LIB\libbespoon_LTA_official.a(live_threshold_adjustment.o)
 .bss           0x00000000        0x0 ..\..\..\..\LTA_LIB\libbespoon_LTA_official.a(live_threshold_adjustment.o)
 .text.lta_compute_gain_from_temperature_lin_model
                0x00000000       0x64 ..\..\..\..\LTA_LIB\libbespoon_LTA_official.a(live_threshold_adjustment.o)
 .text.lta_get_temp_model_params_from_channel
                0x00000000       0x48 ..\..\..\..\LTA_LIB\libbespoon_LTA_official.a(live_threshold_adjustment.o)
 .text.lta_set_enable_temp_calib
                0x00000000        0x4 ..\..\..\..\LTA_LIB\libbespoon_LTA_official.a(live_threshold_adjustment.o)
 .text.lta_get_enable_temp_calib
                0x00000000        0x4 ..\..\..\..\LTA_LIB\libbespoon_LTA_official.a(live_threshold_adjustment.o)
 .text.lta_reset_temp_calib
                0x00000000        0x8 ..\..\..\..\LTA_LIB\libbespoon_LTA_official.a(live_threshold_adjustment.o)
 .text.lta_get_thld_filter_init
                0x00000000       0x34 ..\..\..\..\LTA_LIB\libbespoon_LTA_official.a(live_threshold_adjustment.o)
 .text.lta_get_channel
                0x00000000        0x4 ..\..\..\..\LTA_LIB\libbespoon_LTA_official.a(live_threshold_adjustment.o)
 .text.lta_get_rf_path
                0x00000000        0x4 ..\..\..\..\LTA_LIB\libbespoon_LTA_official.a(live_threshold_adjustment.o)
 .text.lta_set_temp
                0x00000000        0x4 ..\..\..\..\LTA_LIB\libbespoon_LTA_official.a(live_threshold_adjustment.o)
 .text.lta_get_temp
                0x00000000        0x8 ..\..\..\..\LTA_LIB\libbespoon_LTA_official.a(live_threshold_adjustment.o)
 .text.lta_reset_live_threshold_adjustment
                0x00000000        0x8 ..\..\..\..\LTA_LIB\libbespoon_LTA_official.a(live_threshold_adjustment.o)
 .text.lta_set_delta_min_noise
                0x00000000        0xc ..\..\..\..\LTA_LIB\libbespoon_LTA_official.a(live_threshold_adjustment.o)
 .text.lta_get_delta_min_noise
                0x00000000        0xc ..\..\..\..\LTA_LIB\libbespoon_LTA_official.a(live_threshold_adjustment.o)
 .text          0x00000000        0x0 ..\..\..\..\LTA_LIB\libbespoon_LTA_official.a(memPool.o)
 .data          0x00000000        0x0 ..\..\..\..\LTA_LIB\libbespoon_LTA_official.a(memPool.o)
 .bss           0x00000000        0x0 ..\..\..\..\LTA_LIB\libbespoon_LTA_official.a(memPool.o)
 .text.init_MemPool_constrained
                0x00000000        0x8 ..\..\..\..\LTA_LIB\libbespoon_LTA_official.a(memPool.o)
 .text.release_MemPool_constrained
                0x00000000        0xc ..\..\..\..\LTA_LIB\libbespoon_LTA_official.a(memPool.o)
 .text.__free_from_MemPool
                0x00000000       0x10 ..\..\..\..\LTA_LIB\libbespoon_LTA_official.a(memPool.o)
 .text          0x00000000        0x0 c:/program files (x86)/gnu tools arm embedded/4.8 2013q4/bin/../lib/gcc/arm-none-eabi/4.8.3/../../../../arm-none-eabi/lib/armv6-m\libm.a(lib_a-wf_log10.o)
 .data          0x00000000        0x0 c:/program files (x86)/gnu tools arm embedded/4.8 2013q4/bin/../lib/gcc/arm-none-eabi/4.8.3/../../../../arm-none-eabi/lib/armv6-m\libm.a(lib_a-wf_log10.o)
 .bss           0x00000000        0x0 c:/program files (x86)/gnu tools arm embedded/4.8 2013q4/bin/../lib/gcc/arm-none-eabi/4.8.3/../../../../arm-none-eabi/lib/armv6-m\libm.a(lib_a-wf_log10.o)
 .text          0x00000000        0x0 c:/program files (x86)/gnu tools arm embedded/4.8 2013q4/bin/../lib/gcc/arm-none-eabi/4.8.3/../../../../arm-none-eabi/lib/armv6-m\libm.a(lib_a-ef_log10.o)
 .data          0x00000000        0x0 c:/program files (x86)/gnu tools arm embedded/4.8 2013q4/bin/../lib/gcc/arm-none-eabi/4.8.3/../../../../arm-none-eabi/lib/armv6-m\libm.a(lib_a-ef_log10.o)
 .bss           0x00000000        0x0 c:/program files (x86)/gnu tools arm embedded/4.8 2013q4/bin/../lib/gcc/arm-none-eabi/4.8.3/../../../../arm-none-eabi/lib/armv6-m\libm.a(lib_a-ef_log10.o)
 .text          0x00000000        0x0 c:/program files (x86)/gnu tools arm embedded/4.8 2013q4/bin/../lib/gcc/arm-none-eabi/4.8.3/../../../../arm-none-eabi/lib/armv6-m\libm.a(lib_a-s_lib_ver.o)
 .data          0x00000000        0x0 c:/program files (x86)/gnu tools arm embedded/4.8 2013q4/bin/../lib/gcc/arm-none-eabi/4.8.3/../../../../arm-none-eabi/lib/armv6-m\libm.a(lib_a-s_lib_ver.o)
 .bss           0x00000000        0x0 c:/program files (x86)/gnu tools arm embedded/4.8 2013q4/bin/../lib/gcc/arm-none-eabi/4.8.3/../../../../arm-none-eabi/lib/armv6-m\libm.a(lib_a-s_lib_ver.o)
 .text          0x00000000        0x0 c:/program files (x86)/gnu tools arm embedded/4.8 2013q4/bin/../lib/gcc/arm-none-eabi/4.8.3/../../../../arm-none-eabi/lib/armv6-m\libm.a(lib_a-s_matherr.o)
 .data          0x00000000        0x0 c:/program files (x86)/gnu tools arm embedded/4.8 2013q4/bin/../lib/gcc/arm-none-eabi/4.8.3/../../../../arm-none-eabi/lib/armv6-m\libm.a(lib_a-s_matherr.o)
 .bss           0x00000000        0x0 c:/program files (x86)/gnu tools arm embedded/4.8 2013q4/bin/../lib/gcc/arm-none-eabi/4.8.3/../../../../arm-none-eabi/lib/armv6-m\libm.a(lib_a-s_matherr.o)
 .text          0x00000000        0x0 c:/program files (x86)/gnu tools arm embedded/4.8 2013q4/bin/../lib/gcc/arm-none-eabi/4.8.3/../../../../arm-none-eabi/lib/armv6-m\libm.a(lib_a-s_nan.o)
 .data          0x00000000        0x0 c:/program files (x86)/gnu tools arm embedded/4.8 2013q4/bin/../lib/gcc/arm-none-eabi/4.8.3/../../../../arm-none-eabi/lib/armv6-m\libm.a(lib_a-s_nan.o)
 .bss           0x00000000        0x0 c:/program files (x86)/gnu tools arm embedded/4.8 2013q4/bin/../lib/gcc/arm-none-eabi/4.8.3/../../../../arm-none-eabi/lib/armv6-m\libm.a(lib_a-s_nan.o)
 .text          0x00000000        0x0 c:/program files (x86)/gnu tools arm embedded/4.8 2013q4/bin/../lib/gcc/arm-none-eabi/4.8.3/../../../../arm-none-eabi/lib/armv6-m\libm.a(lib_a-sf_fpclassify.o)
 .data          0x00000000        0x0 c:/program files (x86)/gnu tools arm embedded/4.8 2013q4/bin/../lib/gcc/arm-none-eabi/4.8.3/../../../../arm-none-eabi/lib/armv6-m\libm.a(lib_a-sf_fpclassify.o)
 .bss           0x00000000        0x0 c:/program files (x86)/gnu tools arm embedded/4.8 2013q4/bin/../lib/gcc/arm-none-eabi/4.8.3/../../../../arm-none-eabi/lib/armv6-m\libm.a(lib_a-sf_fpclassify.o)
 .text          0x00000000        0x0 c:/program files (x86)/gnu tools arm embedded/4.8 2013q4/bin/../lib/gcc/arm-none-eabi/4.8.3/../../../../arm-none-eabi/lib/armv6-m\libm.a(lib_a-ef_log.o)
 .data          0x00000000        0x0 c:/program files (x86)/gnu tools arm embedded/4.8 2013q4/bin/../lib/gcc/arm-none-eabi/4.8.3/../../../../arm-none-eabi/lib/armv6-m\libm.a(lib_a-ef_log.o)
 .bss           0x00000000        0x0 c:/program files (x86)/gnu tools arm embedded/4.8 2013q4/bin/../lib/gcc/arm-none-eabi/4.8.3/../../../../arm-none-eabi/lib/armv6-m\libm.a(lib_a-ef_log.o)
 .data          0x00000000        0x0 c:/program files (x86)/gnu tools arm embedded/4.8 2013q4/bin/../lib/gcc/arm-none-eabi/4.8.3/armv6-m\libgcc.a(_thumb1_case_uqi.o)
 .bss           0x00000000        0x0 c:/program files (x86)/gnu tools arm embedded/4.8 2013q4/bin/../lib/gcc/arm-none-eabi/4.8.3/armv6-m\libgcc.a(_thumb1_case_uqi.o)
 .data          0x00000000        0x0 c:/program files (x86)/gnu tools arm embedded/4.8 2013q4/bin/../lib/gcc/arm-none-eabi/4.8.3/armv6-m\libgcc.a(_udivsi3.o)
 .bss           0x00000000        0x0 c:/program files (x86)/gnu tools arm embedded/4.8 2013q4/bin/../lib/gcc/arm-none-eabi/4.8.3/armv6-m\libgcc.a(_udivsi3.o)
 .data          0x00000000        0x0 c:/program files (x86)/gnu tools arm embedded/4.8 2013q4/bin/../lib/gcc/arm-none-eabi/4.8.3/armv6-m\libgcc.a(_divsi3.o)
 .bss           0x00000000        0x0 c:/program files (x86)/gnu tools arm embedded/4.8 2013q4/bin/../lib/gcc/arm-none-eabi/4.8.3/armv6-m\libgcc.a(_divsi3.o)
 .data          0x00000000        0x0 c:/program files (x86)/gnu tools arm embedded/4.8 2013q4/bin/../lib/gcc/arm-none-eabi/4.8.3/armv6-m\libgcc.a(_dvmd_tls.o)
 .bss           0x00000000        0x0 c:/program files (x86)/gnu tools arm embedded/4.8 2013q4/bin/../lib/gcc/arm-none-eabi/4.8.3/armv6-m\libgcc.a(_dvmd_tls.o)
 .data          0x00000000        0x0 c:/program files (x86)/gnu tools arm embedded/4.8 2013q4/bin/../lib/gcc/arm-none-eabi/4.8.3/armv6-m\libgcc.a(_lshrdi3.o)
 .bss           0x00000000        0x0 c:/program files (x86)/gnu tools arm embedded/4.8 2013q4/bin/../lib/gcc/arm-none-eabi/4.8.3/armv6-m\libgcc.a(_lshrdi3.o)
 .data          0x00000000        0x0 c:/program files (x86)/gnu tools arm embedded/4.8 2013q4/bin/../lib/gcc/arm-none-eabi/4.8.3/armv6-m\libgcc.a(_ashldi3.o)
 .bss           0x00000000        0x0 c:/program files (x86)/gnu tools arm embedded/4.8 2013q4/bin/../lib/gcc/arm-none-eabi/4.8.3/armv6-m\libgcc.a(_ashldi3.o)
 .data          0x00000000        0x0 c:/program files (x86)/gnu tools arm embedded/4.8 2013q4/bin/../lib/gcc/arm-none-eabi/4.8.3/armv6-m\libgcc.a(_arm_cmpsf2.o)
 .bss           0x00000000        0x0 c:/program files (x86)/gnu tools arm embedded/4.8 2013q4/bin/../lib/gcc/arm-none-eabi/4.8.3/armv6-m\libgcc.a(_arm_cmpsf2.o)
 .data          0x00000000        0x0 c:/program files (x86)/gnu tools arm embedded/4.8 2013q4/bin/../lib/gcc/arm-none-eabi/4.8.3/armv6-m\libgcc.a(_aeabi_ldivmod.o)
 .bss           0x00000000        0x0 c:/program files (x86)/gnu tools arm embedded/4.8 2013q4/bin/../lib/gcc/arm-none-eabi/4.8.3/armv6-m\libgcc.a(_aeabi_ldivmod.o)
 .data          0x00000000        0x0 c:/program files (x86)/gnu tools arm embedded/4.8 2013q4/bin/../lib/gcc/arm-none-eabi/4.8.3/armv6-m\libgcc.a(_aeabi_uldivmod.o)
 .bss           0x00000000        0x0 c:/program files (x86)/gnu tools arm embedded/4.8 2013q4/bin/../lib/gcc/arm-none-eabi/4.8.3/armv6-m\libgcc.a(_aeabi_uldivmod.o)
 .data          0x00000000        0x0 c:/program files (x86)/gnu tools arm embedded/4.8 2013q4/bin/../lib/gcc/arm-none-eabi/4.8.3/armv6-m\libgcc.a(_muldi3.o)
 .bss           0x00000000        0x0 c:/program files (x86)/gnu tools arm embedded/4.8 2013q4/bin/../lib/gcc/arm-none-eabi/4.8.3/armv6-m\libgcc.a(_muldi3.o)
 .data          0x00000000        0x0 c:/program files (x86)/gnu tools arm embedded/4.8 2013q4/bin/../lib/gcc/arm-none-eabi/4.8.3/armv6-m\libgcc.a(_fixunssfsi.o)
 .bss           0x00000000        0x0 c:/program files (x86)/gnu tools arm embedded/4.8 2013q4/bin/../lib/gcc/arm-none-eabi/4.8.3/armv6-m\libgcc.a(_fixunssfsi.o)
 .data          0x00000000        0x0 c:/program files (x86)/gnu tools arm embedded/4.8 2013q4/bin/../lib/gcc/arm-none-eabi/4.8.3/armv6-m\libgcc.a(bpabi.o)
 .bss           0x00000000        0x0 c:/program files (x86)/gnu tools arm embedded/4.8 2013q4/bin/../lib/gcc/arm-none-eabi/4.8.3/armv6-m\libgcc.a(bpabi.o)
 .data          0x00000000        0x0 c:/program files (x86)/gnu tools arm embedded/4.8 2013q4/bin/../lib/gcc/arm-none-eabi/4.8.3/armv6-m\libgcc.a(addsf3.o)
 .bss           0x00000000        0x0 c:/program files (x86)/gnu tools arm embedded/4.8 2013q4/bin/../lib/gcc/arm-none-eabi/4.8.3/armv6-m\libgcc.a(addsf3.o)
 .data          0x00000000        0x0 c:/program files (x86)/gnu tools arm embedded/4.8 2013q4/bin/../lib/gcc/arm-none-eabi/4.8.3/armv6-m\libgcc.a(divsf3.o)
 .bss           0x00000000        0x0 c:/program files (x86)/gnu tools arm embedded/4.8 2013q4/bin/../lib/gcc/arm-none-eabi/4.8.3/armv6-m\libgcc.a(divsf3.o)
 .data          0x00000000        0x0 c:/program files (x86)/gnu tools arm embedded/4.8 2013q4/bin/../lib/gcc/arm-none-eabi/4.8.3/armv6-m\libgcc.a(eqsf2.o)
 .bss           0x00000000        0x0 c:/program files (x86)/gnu tools arm embedded/4.8 2013q4/bin/../lib/gcc/arm-none-eabi/4.8.3/armv6-m\libgcc.a(eqsf2.o)
 .data          0x00000000        0x0 c:/program files (x86)/gnu tools arm embedded/4.8 2013q4/bin/../lib/gcc/arm-none-eabi/4.8.3/armv6-m\libgcc.a(gesf2.o)
 .bss           0x00000000        0x0 c:/program files (x86)/gnu tools arm embedded/4.8 2013q4/bin/../lib/gcc/arm-none-eabi/4.8.3/armv6-m\libgcc.a(gesf2.o)
 .data          0x00000000        0x0 c:/program files (x86)/gnu tools arm embedded/4.8 2013q4/bin/../lib/gcc/arm-none-eabi/4.8.3/armv6-m\libgcc.a(lesf2.o)
 .bss           0x00000000        0x0 c:/program files (x86)/gnu tools arm embedded/4.8 2013q4/bin/../lib/gcc/arm-none-eabi/4.8.3/armv6-m\libgcc.a(lesf2.o)
 .data          0x00000000        0x0 c:/program files (x86)/gnu tools arm embedded/4.8 2013q4/bin/../lib/gcc/arm-none-eabi/4.8.3/armv6-m\libgcc.a(mulsf3.o)
 .bss           0x00000000        0x0 c:/program files (x86)/gnu tools arm embedded/4.8 2013q4/bin/../lib/gcc/arm-none-eabi/4.8.3/armv6-m\libgcc.a(mulsf3.o)
 .data          0x00000000        0x0 c:/program files (x86)/gnu tools arm embedded/4.8 2013q4/bin/../lib/gcc/arm-none-eabi/4.8.3/armv6-m\libgcc.a(subsf3.o)
 .bss           0x00000000        0x0 c:/program files (x86)/gnu tools arm embedded/4.8 2013q4/bin/../lib/gcc/arm-none-eabi/4.8.3/armv6-m\libgcc.a(subsf3.o)
 .data          0x00000000        0x0 c:/program files (x86)/gnu tools arm embedded/4.8 2013q4/bin/../lib/gcc/arm-none-eabi/4.8.3/armv6-m\libgcc.a(fixsfsi.o)
 .bss           0x00000000        0x0 c:/program files (x86)/gnu tools arm embedded/4.8 2013q4/bin/../lib/gcc/arm-none-eabi/4.8.3/armv6-m\libgcc.a(fixsfsi.o)
 .data          0x00000000        0x0 c:/program files (x86)/gnu tools arm embedded/4.8 2013q4/bin/../lib/gcc/arm-none-eabi/4.8.3/armv6-m\libgcc.a(floatsisf.o)
 .bss           0x00000000        0x0 c:/program files (x86)/gnu tools arm embedded/4.8 2013q4/bin/../lib/gcc/arm-none-eabi/4.8.3/armv6-m\libgcc.a(floatsisf.o)
 .data          0x00000000        0x0 c:/program files (x86)/gnu tools arm embedded/4.8 2013q4/bin/../lib/gcc/arm-none-eabi/4.8.3/armv6-m\libgcc.a(floatunsisf.o)
 .bss           0x00000000        0x0 c:/program files (x86)/gnu tools arm embedded/4.8 2013q4/bin/../lib/gcc/arm-none-eabi/4.8.3/armv6-m\libgcc.a(floatunsisf.o)
 .data          0x00000000        0x0 c:/program files (x86)/gnu tools arm embedded/4.8 2013q4/bin/../lib/gcc/arm-none-eabi/4.8.3/armv6-m\libgcc.a(extendsfdf2.o)
 .bss           0x00000000        0x0 c:/program files (x86)/gnu tools arm embedded/4.8 2013q4/bin/../lib/gcc/arm-none-eabi/4.8.3/armv6-m\libgcc.a(extendsfdf2.o)
 .data          0x00000000        0x0 c:/program files (x86)/gnu tools arm embedded/4.8 2013q4/bin/../lib/gcc/arm-none-eabi/4.8.3/armv6-m\libgcc.a(truncdfsf2.o)
 .bss           0x00000000        0x0 c:/program files (x86)/gnu tools arm embedded/4.8 2013q4/bin/../lib/gcc/arm-none-eabi/4.8.3/armv6-m\libgcc.a(truncdfsf2.o)
 .data          0x00000000        0x0 c:/program files (x86)/gnu tools arm embedded/4.8 2013q4/bin/../lib/gcc/arm-none-eabi/4.8.3/armv6-m\libgcc.a(_clzsi2.o)
 .bss           0x00000000        0x0 c:/program files (x86)/gnu tools arm embedded/4.8 2013q4/bin/../lib/gcc/arm-none-eabi/4.8.3/armv6-m\libgcc.a(_clzsi2.o)
 .data          0x00000000        0x0 c:/program files (x86)/gnu tools arm embedded/4.8 2013q4/bin/../lib/gcc/arm-none-eabi/4.8.3/armv6-m\libgcc.a(_divdi3.o)
 .bss           0x00000000        0x0 c:/program files (x86)/gnu tools arm embedded/4.8 2013q4/bin/../lib/gcc/arm-none-eabi/4.8.3/armv6-m\libgcc.a(_divdi3.o)
 .ARM.extab     0x00000000        0x0 c:/program files (x86)/gnu tools arm embedded/4.8 2013q4/bin/../lib/gcc/arm-none-eabi/4.8.3/armv6-m\libgcc.a(_divdi3.o)
 .data          0x00000000        0x0 c:/program files (x86)/gnu tools arm embedded/4.8 2013q4/bin/../lib/gcc/arm-none-eabi/4.8.3/armv6-m\libgcc.a(_udivdi3.o)
 .bss           0x00000000        0x0 c:/program files (x86)/gnu tools arm embedded/4.8 2013q4/bin/../lib/gcc/arm-none-eabi/4.8.3/armv6-m\libgcc.a(_udivdi3.o)
 .ARM.extab     0x00000000        0x0 c:/program files (x86)/gnu tools arm embedded/4.8 2013q4/bin/../lib/gcc/arm-none-eabi/4.8.3/armv6-m\libgcc.a(_udivdi3.o)
 .text          0x00000000        0x0 c:/program files (x86)/gnu tools arm embedded/4.8 2013q4/bin/../lib/gcc/arm-none-eabi/4.8.3/../../../../arm-none-eabi/lib/armv6-m\libg.a(lib_a-atoi.o)
 .data          0x00000000        0x0 c:/program files (x86)/gnu tools arm embedded/4.8 2013q4/bin/../lib/gcc/arm-none-eabi/4.8.3/../../../../arm-none-eabi/lib/armv6-m\libg.a(lib_a-atoi.o)
 .bss           0x00000000        0x0 c:/program files (x86)/gnu tools arm embedded/4.8 2013q4/bin/../lib/gcc/arm-none-eabi/4.8.3/../../../../arm-none-eabi/lib/armv6-m\libg.a(lib_a-atoi.o)
 .text._atoi_r  0x00000000        0xc c:/program files (x86)/gnu tools arm embedded/4.8 2013q4/bin/../lib/gcc/arm-none-eabi/4.8.3/../../../../arm-none-eabi/lib/armv6-m\libg.a(lib_a-atoi.o)
 .text          0x00000000        0x0 c:/program files (x86)/gnu tools arm embedded/4.8 2013q4/bin/../lib/gcc/arm-none-eabi/4.8.3/../../../../arm-none-eabi/lib/armv6-m\libg.a(lib_a-ctype_.o)
 .data          0x00000000        0x0 c:/program files (x86)/gnu tools arm embedded/4.8 2013q4/bin/../lib/gcc/arm-none-eabi/4.8.3/../../../../arm-none-eabi/lib/armv6-m\libg.a(lib_a-ctype_.o)
 .bss           0x00000000        0x0 c:/program files (x86)/gnu tools arm embedded/4.8 2013q4/bin/../lib/gcc/arm-none-eabi/4.8.3/../../../../arm-none-eabi/lib/armv6-m\libg.a(lib_a-ctype_.o)
 .text          0x00000000        0x0 c:/program files (x86)/gnu tools arm embedded/4.8 2013q4/bin/../lib/gcc/arm-none-eabi/4.8.3/../../../../arm-none-eabi/lib/armv6-m\libg.a(lib_a-errno.o)
 .data          0x00000000        0x0 c:/program files (x86)/gnu tools arm embedded/4.8 2013q4/bin/../lib/gcc/arm-none-eabi/4.8.3/../../../../arm-none-eabi/lib/armv6-m\libg.a(lib_a-errno.o)
 .bss           0x00000000        0x0 c:/program files (x86)/gnu tools arm embedded/4.8 2013q4/bin/../lib/gcc/arm-none-eabi/4.8.3/../../../../arm-none-eabi/lib/armv6-m\libg.a(lib_a-errno.o)
 .text          0x00000000        0x0 c:/program files (x86)/gnu tools arm embedded/4.8 2013q4/bin/../lib/gcc/arm-none-eabi/4.8.3/../../../../arm-none-eabi/lib/armv6-m\libg.a(lib_a-gets.o)
 .data          0x00000000        0x0 c:/program files (x86)/gnu tools arm embedded/4.8 2013q4/bin/../lib/gcc/arm-none-eabi/4.8.3/../../../../arm-none-eabi/lib/armv6-m\libg.a(lib_a-gets.o)
 .bss           0x00000000        0x0 c:/program files (x86)/gnu tools arm embedded/4.8 2013q4/bin/../lib/gcc/arm-none-eabi/4.8.3/../../../../arm-none-eabi/lib/armv6-m\libg.a(lib_a-gets.o)
 .text._gets_r  0x00000000       0x4c c:/program files (x86)/gnu tools arm embedded/4.8 2013q4/bin/../lib/gcc/arm-none-eabi/4.8.3/../../../../arm-none-eabi/lib/armv6-m\libg.a(lib_a-gets.o)
 .text.gets     0x00000000       0x14 c:/program files (x86)/gnu tools arm embedded/4.8 2013q4/bin/../lib/gcc/arm-none-eabi/4.8.3/../../../../arm-none-eabi/lib/armv6-m\libg.a(lib_a-gets.o)
 .ARM.attributes
                0x00000000       0x2c c:/program files (x86)/gnu tools arm embedded/4.8 2013q4/bin/../lib/gcc/arm-none-eabi/4.8.3/../../../../arm-none-eabi/lib/armv6-m\libg.a(lib_a-gets.o)
 .debug_frame   0x00000000       0x48 c:/program files (x86)/gnu tools arm embedded/4.8 2013q4/bin/../lib/gcc/arm-none-eabi/4.8.3/../../../../arm-none-eabi/lib/armv6-m\libg.a(lib_a-gets.o)
 .text          0x00000000        0x0 c:/program files (x86)/gnu tools arm embedded/4.8 2013q4/bin/../lib/gcc/arm-none-eabi/4.8.3/../../../../arm-none-eabi/lib/armv6-m\libg.a(lib_a-impure.o)
 .data          0x00000000        0x0 c:/program files (x86)/gnu tools arm embedded/4.8 2013q4/bin/../lib/gcc/arm-none-eabi/4.8.3/../../../../arm-none-eabi/lib/armv6-m\libg.a(lib_a-impure.o)
 .bss           0x00000000        0x0 c:/program files (x86)/gnu tools arm embedded/4.8 2013q4/bin/../lib/gcc/arm-none-eabi/4.8.3/../../../../arm-none-eabi/lib/armv6-m\libg.a(lib_a-impure.o)
 .rodata._global_impure_ptr
                0x00000000        0x4 c:/program files (x86)/gnu tools arm embedded/4.8 2013q4/bin/../lib/gcc/arm-none-eabi/4.8.3/../../../../arm-none-eabi/lib/armv6-m\libg.a(lib_a-impure.o)
 .text          0x00000000        0x0 c:/program files (x86)/gnu tools arm embedded/4.8 2013q4/bin/../lib/gcc/arm-none-eabi/4.8.3/../../../../arm-none-eabi/lib/armv6-m\libg.a(lib_a-malloc.o)
 .data          0x00000000        0x0 c:/program files (x86)/gnu tools arm embedded/4.8 2013q4/bin/../lib/gcc/arm-none-eabi/4.8.3/../../../../arm-none-eabi/lib/armv6-m\libg.a(lib_a-malloc.o)
 .bss           0x00000000        0x0 c:/program files (x86)/gnu tools arm embedded/4.8 2013q4/bin/../lib/gcc/arm-none-eabi/4.8.3/../../../../arm-none-eabi/lib/armv6-m\libg.a(lib_a-malloc.o)
 .text          0x00000000        0x0 c:/program files (x86)/gnu tools arm embedded/4.8 2013q4/bin/../lib/gcc/arm-none-eabi/4.8.3/../../../../arm-none-eabi/lib/armv6-m\libg.a(lib_a-mallocr.o)
 .data          0x00000000        0x0 c:/program files (x86)/gnu tools arm embedded/4.8 2013q4/bin/../lib/gcc/arm-none-eabi/4.8.3/../../../../arm-none-eabi/lib/armv6-m\libg.a(lib_a-mallocr.o)
 .bss           0x00000000        0x0 c:/program files (x86)/gnu tools arm embedded/4.8 2013q4/bin/../lib/gcc/arm-none-eabi/4.8.3/../../../../arm-none-eabi/lib/armv6-m\libg.a(lib_a-mallocr.o)
 .text          0x00000000        0x0 c:/program files (x86)/gnu tools arm embedded/4.8 2013q4/bin/../lib/gcc/arm-none-eabi/4.8.3/../../../../arm-none-eabi/lib/armv6-m\libg.a(lib_a-memcmp.o)
 .data          0x00000000        0x0 c:/program files (x86)/gnu tools arm embedded/4.8 2013q4/bin/../lib/gcc/arm-none-eabi/4.8.3/../../../../arm-none-eabi/lib/armv6-m\libg.a(lib_a-memcmp.o)
 .bss           0x00000000        0x0 c:/program files (x86)/gnu tools arm embedded/4.8 2013q4/bin/../lib/gcc/arm-none-eabi/4.8.3/../../../../arm-none-eabi/lib/armv6-m\libg.a(lib_a-memcmp.o)
 .text.memcmp   0x00000000       0x4c c:/program files (x86)/gnu tools arm embedded/4.8 2013q4/bin/../lib/gcc/arm-none-eabi/4.8.3/../../../../arm-none-eabi/lib/armv6-m\libg.a(lib_a-memcmp.o)
 .ARM.attributes
                0x00000000       0x2c c:/program files (x86)/gnu tools arm embedded/4.8 2013q4/bin/../lib/gcc/arm-none-eabi/4.8.3/../../../../arm-none-eabi/lib/armv6-m\libg.a(lib_a-memcmp.o)
 .debug_frame   0x00000000       0x2c c:/program files (x86)/gnu tools arm embedded/4.8 2013q4/bin/../lib/gcc/arm-none-eabi/4.8.3/../../../../arm-none-eabi/lib/armv6-m\libg.a(lib_a-memcmp.o)
 .text          0x00000000        0x0 c:/program files (x86)/gnu tools arm embedded/4.8 2013q4/bin/../lib/gcc/arm-none-eabi/4.8.3/../../../../arm-none-eabi/lib/armv6-m\libg.a(lib_a-memcpy-stub.o)
 .data          0x00000000        0x0 c:/program files (x86)/gnu tools arm embedded/4.8 2013q4/bin/../lib/gcc/arm-none-eabi/4.8.3/../../../../arm-none-eabi/lib/armv6-m\libg.a(lib_a-memcpy-stub.o)
 .bss           0x00000000        0x0 c:/program files (x86)/gnu tools arm embedded/4.8 2013q4/bin/../lib/gcc/arm-none-eabi/4.8.3/../../../../arm-none-eabi/lib/armv6-m\libg.a(lib_a-memcpy-stub.o)
 .text          0x00000000        0x0 c:/program files (x86)/gnu tools arm embedded/4.8 2013q4/bin/../lib/gcc/arm-none-eabi/4.8.3/../../../../arm-none-eabi/lib/armv6-m\libg.a(lib_a-memset.o)
 .data          0x00000000        0x0 c:/program files (x86)/gnu tools arm embedded/4.8 2013q4/bin/../lib/gcc/arm-none-eabi/4.8.3/../../../../arm-none-eabi/lib/armv6-m\libg.a(lib_a-memset.o)
 .bss           0x00000000        0x0 c:/program files (x86)/gnu tools arm embedded/4.8 2013q4/bin/../lib/gcc/arm-none-eabi/4.8.3/../../../../arm-none-eabi/lib/armv6-m\libg.a(lib_a-memset.o)
 .text          0x00000000        0x0 c:/program files (x86)/gnu tools arm embedded/4.8 2013q4/bin/../lib/gcc/arm-none-eabi/4.8.3/../../../../arm-none-eabi/lib/armv6-m\libg.a(lib_a-mlock.o)
 .data          0x00000000        0x0 c:/program files (x86)/gnu tools arm embedded/4.8 2013q4/bin/../lib/gcc/arm-none-eabi/4.8.3/../../../../arm-none-eabi/lib/armv6-m\libg.a(lib_a-mlock.o)
 .bss           0x00000000        0x0 c:/program files (x86)/gnu tools arm embedded/4.8 2013q4/bin/../lib/gcc/arm-none-eabi/4.8.3/../../../../arm-none-eabi/lib/armv6-m\libg.a(lib_a-mlock.o)
 .text          0x00000000        0x0 c:/program files (x86)/gnu tools arm embedded/4.8 2013q4/bin/../lib/gcc/arm-none-eabi/4.8.3/../../../../arm-none-eabi/lib/armv6-m\libg.a(lib_a-rget.o)
 .data          0x00000000        0x0 c:/program files (x86)/gnu tools arm embedded/4.8 2013q4/bin/../lib/gcc/arm-none-eabi/4.8.3/../../../../arm-none-eabi/lib/armv6-m\libg.a(lib_a-rget.o)
 .bss           0x00000000        0x0 c:/program files (x86)/gnu tools arm embedded/4.8 2013q4/bin/../lib/gcc/arm-none-eabi/4.8.3/../../../../arm-none-eabi/lib/armv6-m\libg.a(lib_a-rget.o)
 .text.__srget_r
                0x00000000       0x38 c:/program files (x86)/gnu tools arm embedded/4.8 2013q4/bin/../lib/gcc/arm-none-eabi/4.8.3/../../../../arm-none-eabi/lib/armv6-m\libg.a(lib_a-rget.o)
 .text.__srget  0x00000000       0x14 c:/program files (x86)/gnu tools arm embedded/4.8 2013q4/bin/../lib/gcc/arm-none-eabi/4.8.3/../../../../arm-none-eabi/lib/armv6-m\libg.a(lib_a-rget.o)
 .ARM.attributes
                0x00000000       0x2c c:/program files (x86)/gnu tools arm embedded/4.8 2013q4/bin/../lib/gcc/arm-none-eabi/4.8.3/../../../../arm-none-eabi/lib/armv6-m\libg.a(lib_a-rget.o)
 .debug_frame   0x00000000       0x44 c:/program files (x86)/gnu tools arm embedded/4.8 2013q4/bin/../lib/gcc/arm-none-eabi/4.8.3/../../../../arm-none-eabi/lib/armv6-m\libg.a(lib_a-rget.o)
 .text          0x00000000        0x0 c:/program files (x86)/gnu tools arm embedded/4.8 2013q4/bin/../lib/gcc/arm-none-eabi/4.8.3/../../../../arm-none-eabi/lib/armv6-m\libg.a(lib_a-sbrkr.o)
 .data          0x00000000        0x0 c:/program files (x86)/gnu tools arm embedded/4.8 2013q4/bin/../lib/gcc/arm-none-eabi/4.8.3/../../../../arm-none-eabi/lib/armv6-m\libg.a(lib_a-sbrkr.o)
 .bss           0x00000000        0x0 c:/program files (x86)/gnu tools arm embedded/4.8 2013q4/bin/../lib/gcc/arm-none-eabi/4.8.3/../../../../arm-none-eabi/lib/armv6-m\libg.a(lib_a-sbrkr.o)
 .text          0x00000000        0x0 c:/program files (x86)/gnu tools arm embedded/4.8 2013q4/bin/../lib/gcc/arm-none-eabi/4.8.3/../../../../arm-none-eabi/lib/armv6-m\libg.a(lib_a-strchr.o)
 .data          0x00000000        0x0 c:/program files (x86)/gnu tools arm embedded/4.8 2013q4/bin/../lib/gcc/arm-none-eabi/4.8.3/../../../../arm-none-eabi/lib/armv6-m\libg.a(lib_a-strchr.o)
 .bss           0x00000000        0x0 c:/program files (x86)/gnu tools arm embedded/4.8 2013q4/bin/../lib/gcc/arm-none-eabi/4.8.3/../../../../arm-none-eabi/lib/armv6-m\libg.a(lib_a-strchr.o)
 .data          0x00000000        0x0 c:/program files (x86)/gnu tools arm embedded/4.8 2013q4/bin/../lib/gcc/arm-none-eabi/4.8.3/../../../../arm-none-eabi/lib/armv6-m\libg.a(lib_a-strcmp.o)
 .bss           0x00000000        0x0 c:/program files (x86)/gnu tools arm embedded/4.8 2013q4/bin/../lib/gcc/arm-none-eabi/4.8.3/../../../../arm-none-eabi/lib/armv6-m\libg.a(lib_a-strcmp.o)
 .text          0x00000000        0x0 c:/program files (x86)/gnu tools arm embedded/4.8 2013q4/bin/../lib/gcc/arm-none-eabi/4.8.3/../../../../arm-none-eabi/lib/armv6-m\libg.a(lib_a-strlen.o)
 .data          0x00000000        0x0 c:/program files (x86)/gnu tools arm embedded/4.8 2013q4/bin/../lib/gcc/arm-none-eabi/4.8.3/../../../../arm-none-eabi/lib/armv6-m\libg.a(lib_a-strlen.o)
 .bss           0x00000000        0x0 c:/program files (x86)/gnu tools arm embedded/4.8 2013q4/bin/../lib/gcc/arm-none-eabi/4.8.3/../../../../arm-none-eabi/lib/armv6-m\libg.a(lib_a-strlen.o)
 .text          0x00000000        0x0 c:/program files (x86)/gnu tools arm embedded/4.8 2013q4/bin/../lib/gcc/arm-none-eabi/4.8.3/../../../../arm-none-eabi/lib/armv6-m\libg.a(lib_a-strncmp.o)
 .data          0x00000000        0x0 c:/program files (x86)/gnu tools arm embedded/4.8 2013q4/bin/../lib/gcc/arm-none-eabi/4.8.3/../../../../arm-none-eabi/lib/armv6-m\libg.a(lib_a-strncmp.o)
 .bss           0x00000000        0x0 c:/program files (x86)/gnu tools arm embedded/4.8 2013q4/bin/../lib/gcc/arm-none-eabi/4.8.3/../../../../arm-none-eabi/lib/armv6-m\libg.a(lib_a-strncmp.o)
 .text          0x00000000        0x0 c:/program files (x86)/gnu tools arm embedded/4.8 2013q4/bin/../lib/gcc/arm-none-eabi/4.8.3/../../../../arm-none-eabi/lib/armv6-m\libg.a(lib_a-strncpy.o)
 .data          0x00000000        0x0 c:/program files (x86)/gnu tools arm embedded/4.8 2013q4/bin/../lib/gcc/arm-none-eabi/4.8.3/../../../../arm-none-eabi/lib/armv6-m\libg.a(lib_a-strncpy.o)
 .bss           0x00000000        0x0 c:/program files (x86)/gnu tools arm embedded/4.8 2013q4/bin/../lib/gcc/arm-none-eabi/4.8.3/../../../../arm-none-eabi/lib/armv6-m\libg.a(lib_a-strncpy.o)
 .text          0x00000000        0x0 c:/program files (x86)/gnu tools arm embedded/4.8 2013q4/bin/../lib/gcc/arm-none-eabi/4.8.3/../../../../arm-none-eabi/lib/armv6-m\libg.a(lib_a-strtol.o)
 .data          0x00000000        0x0 c:/program files (x86)/gnu tools arm embedded/4.8 2013q4/bin/../lib/gcc/arm-none-eabi/4.8.3/../../../../arm-none-eabi/lib/armv6-m\libg.a(lib_a-strtol.o)
 .bss           0x00000000        0x0 c:/program files (x86)/gnu tools arm embedded/4.8 2013q4/bin/../lib/gcc/arm-none-eabi/4.8.3/../../../../arm-none-eabi/lib/armv6-m\libg.a(lib_a-strtol.o)
 .text          0x00000000        0x0 c:/program files (x86)/gnu tools arm embedded/4.8 2013q4/bin/../lib/gcc/arm-none-eabi/4.8.3/../../../../arm-none-eabi/lib/armv6-m\libg.a(lib_a-strtoul.o)
 .data          0x00000000        0x0 c:/program files (x86)/gnu tools arm embedded/4.8 2013q4/bin/../lib/gcc/arm-none-eabi/4.8.3/../../../../arm-none-eabi/lib/armv6-m\libg.a(lib_a-strtoul.o)
 .bss           0x00000000        0x0 c:/program files (x86)/gnu tools arm embedded/4.8 2013q4/bin/../lib/gcc/arm-none-eabi/4.8.3/../../../../arm-none-eabi/lib/armv6-m\libg.a(lib_a-strtoul.o)
 .text          0x00000000        0x0 c:/program files (x86)/gnu tools arm embedded/4.8 2013q4/bin/../lib/gcc/arm-none-eabi/4.8.3/../../../../arm-none-eabi/lib/armv6-m\libg.a(lib_a-findfp.o)
 .data          0x00000000        0x0 c:/program files (x86)/gnu tools arm embedded/4.8 2013q4/bin/../lib/gcc/arm-none-eabi/4.8.3/../../../../arm-none-eabi/lib/armv6-m\libg.a(lib_a-findfp.o)
 .bss           0x00000000        0x0 c:/program files (x86)/gnu tools arm embedded/4.8 2013q4/bin/../lib/gcc/arm-none-eabi/4.8.3/../../../../arm-none-eabi/lib/armv6-m\libg.a(lib_a-findfp.o)
 .text.__fp_lock
                0x00000000        0x4 c:/program files (x86)/gnu tools arm embedded/4.8 2013q4/bin/../lib/gcc/arm-none-eabi/4.8.3/../../../../arm-none-eabi/lib/armv6-m\libg.a(lib_a-findfp.o)
 .text.__fp_unlock
                0x00000000        0x4 c:/program files (x86)/gnu tools arm embedded/4.8 2013q4/bin/../lib/gcc/arm-none-eabi/4.8.3/../../../../arm-none-eabi/lib/armv6-m\libg.a(lib_a-findfp.o)
 .text._cleanup_r
                0x00000000       0x10 c:/program files (x86)/gnu tools arm embedded/4.8 2013q4/bin/../lib/gcc/arm-none-eabi/4.8.3/../../../../arm-none-eabi/lib/armv6-m\libg.a(lib_a-findfp.o)
 .text.__sfmoreglue
                0x00000000       0x30 c:/program files (x86)/gnu tools arm embedded/4.8 2013q4/bin/../lib/gcc/arm-none-eabi/4.8.3/../../../../arm-none-eabi/lib/armv6-m\libg.a(lib_a-findfp.o)
 .text._cleanup
                0x00000000       0x18 c:/program files (x86)/gnu tools arm embedded/4.8 2013q4/bin/../lib/gcc/arm-none-eabi/4.8.3/../../../../arm-none-eabi/lib/armv6-m\libg.a(lib_a-findfp.o)
 .text.__sinit  0x00000000       0xfc c:/program files (x86)/gnu tools arm embedded/4.8 2013q4/bin/../lib/gcc/arm-none-eabi/4.8.3/../../../../arm-none-eabi/lib/armv6-m\libg.a(lib_a-findfp.o)
 .text.__sfp    0x00000000       0x90 c:/program files (x86)/gnu tools arm embedded/4.8 2013q4/bin/../lib/gcc/arm-none-eabi/4.8.3/../../../../arm-none-eabi/lib/armv6-m\libg.a(lib_a-findfp.o)
 .text.__sfp_lock_acquire
                0x00000000        0x4 c:/program files (x86)/gnu tools arm embedded/4.8 2013q4/bin/../lib/gcc/arm-none-eabi/4.8.3/../../../../arm-none-eabi/lib/armv6-m\libg.a(lib_a-findfp.o)
 .text.__sfp_lock_release
                0x00000000        0x4 c:/program files (x86)/gnu tools arm embedded/4.8 2013q4/bin/../lib/gcc/arm-none-eabi/4.8.3/../../../../arm-none-eabi/lib/armv6-m\libg.a(lib_a-findfp.o)
 .text.__sinit_lock_acquire
                0x00000000        0x4 c:/program files (x86)/gnu tools arm embedded/4.8 2013q4/bin/../lib/gcc/arm-none-eabi/4.8.3/../../../../arm-none-eabi/lib/armv6-m\libg.a(lib_a-findfp.o)
 .text.__sinit_lock_release
                0x00000000        0x4 c:/program files (x86)/gnu tools arm embedded/4.8 2013q4/bin/../lib/gcc/arm-none-eabi/4.8.3/../../../../arm-none-eabi/lib/armv6-m\libg.a(lib_a-findfp.o)
 .text.__fp_lock_all
                0x00000000       0x18 c:/program files (x86)/gnu tools arm embedded/4.8 2013q4/bin/../lib/gcc/arm-none-eabi/4.8.3/../../../../arm-none-eabi/lib/armv6-m\libg.a(lib_a-findfp.o)
 .text.__fp_unlock_all
                0x00000000       0x18 c:/program files (x86)/gnu tools arm embedded/4.8 2013q4/bin/../lib/gcc/arm-none-eabi/4.8.3/../../../../arm-none-eabi/lib/armv6-m\libg.a(lib_a-findfp.o)
 .ARM.attributes
                0x00000000       0x2c c:/program files (x86)/gnu tools arm embedded/4.8 2013q4/bin/../lib/gcc/arm-none-eabi/4.8.3/../../../../arm-none-eabi/lib/armv6-m\libg.a(lib_a-findfp.o)
 .debug_frame   0x00000000      0x134 c:/program files (x86)/gnu tools arm embedded/4.8 2013q4/bin/../lib/gcc/arm-none-eabi/4.8.3/../../../../arm-none-eabi/lib/armv6-m\libg.a(lib_a-findfp.o)
 .text          0x00000000        0x0 c:/program files (x86)/gnu tools arm embedded/4.8 2013q4/bin/../lib/gcc/arm-none-eabi/4.8.3/../../../../arm-none-eabi/lib/armv6-m\libg.a(lib_a-freer.o)
 .data          0x00000000        0x0 c:/program files (x86)/gnu tools arm embedded/4.8 2013q4/bin/../lib/gcc/arm-none-eabi/4.8.3/../../../../arm-none-eabi/lib/armv6-m\libg.a(lib_a-freer.o)
 .bss           0x00000000        0x0 c:/program files (x86)/gnu tools arm embedded/4.8 2013q4/bin/../lib/gcc/arm-none-eabi/4.8.3/../../../../arm-none-eabi/lib/armv6-m\libg.a(lib_a-freer.o)
 .text          0x00000000        0x0 c:/program files (x86)/gnu tools arm embedded/4.8 2013q4/bin/../lib/gcc/arm-none-eabi/4.8.3/../../../../arm-none-eabi/lib/armv6-m\libg.a(lib_a-fwalk.o)
 .data          0x00000000        0x0 c:/program files (x86)/gnu tools arm embedded/4.8 2013q4/bin/../lib/gcc/arm-none-eabi/4.8.3/../../../../arm-none-eabi/lib/armv6-m\libg.a(lib_a-fwalk.o)
 .bss           0x00000000        0x0 c:/program files (x86)/gnu tools arm embedded/4.8 2013q4/bin/../lib/gcc/arm-none-eabi/4.8.3/../../../../arm-none-eabi/lib/armv6-m\libg.a(lib_a-fwalk.o)
 .text._fwalk   0x00000000       0x44 c:/program files (x86)/gnu tools arm embedded/4.8 2013q4/bin/../lib/gcc/arm-none-eabi/4.8.3/../../../../arm-none-eabi/lib/armv6-m\libg.a(lib_a-fwalk.o)
 .text._fwalk_reent
                0x00000000       0x50 c:/program files (x86)/gnu tools arm embedded/4.8 2013q4/bin/../lib/gcc/arm-none-eabi/4.8.3/../../../../arm-none-eabi/lib/armv6-m\libg.a(lib_a-fwalk.o)
 .ARM.attributes
                0x00000000       0x2c c:/program files (x86)/gnu tools arm embedded/4.8 2013q4/bin/../lib/gcc/arm-none-eabi/4.8.3/../../../../arm-none-eabi/lib/armv6-m\libg.a(lib_a-fwalk.o)
 .debug_frame   0x00000000       0x5c c:/program files (x86)/gnu tools arm embedded/4.8 2013q4/bin/../lib/gcc/arm-none-eabi/4.8.3/../../../../arm-none-eabi/lib/armv6-m\libg.a(lib_a-fwalk.o)
 .text          0x00000000        0x0 c:/program files (x86)/gnu tools arm embedded/4.8 2013q4/bin/../lib/gcc/arm-none-eabi/4.8.3/../../../../arm-none-eabi/lib/armv6-m\libg.a(lib_a-reent.o)
 .data          0x00000000        0x0 c:/program files (x86)/gnu tools arm embedded/4.8 2013q4/bin/../lib/gcc/arm-none-eabi/4.8.3/../../../../arm-none-eabi/lib/armv6-m\libg.a(lib_a-reent.o)
 .bss           0x00000000        0x0 c:/program files (x86)/gnu tools arm embedded/4.8 2013q4/bin/../lib/gcc/arm-none-eabi/4.8.3/../../../../arm-none-eabi/lib/armv6-m\libg.a(lib_a-reent.o)
 .text.cleanup_glue
                0x00000000       0x1c c:/program files (x86)/gnu tools arm embedded/4.8 2013q4/bin/../lib/gcc/arm-none-eabi/4.8.3/../../../../arm-none-eabi/lib/armv6-m\libg.a(lib_a-reent.o)
 .text._reclaim_reent
                0x00000000       0xa0 c:/program files (x86)/gnu tools arm embedded/4.8 2013q4/bin/../lib/gcc/arm-none-eabi/4.8.3/../../../../arm-none-eabi/lib/armv6-m\libg.a(lib_a-reent.o)
 .text          0x00000000        0x0 c:/program files (x86)/gnu tools arm embedded/4.8 2013q4/bin/../lib/gcc/arm-none-eabi/4.8.3/../../../../arm-none-eabi/lib/armv6-m\libg.a(lib_a-refill.o)
 .data          0x00000000        0x0 c:/program files (x86)/gnu tools arm embedded/4.8 2013q4/bin/../lib/gcc/arm-none-eabi/4.8.3/../../../../arm-none-eabi/lib/armv6-m\libg.a(lib_a-refill.o)
 .bss           0x00000000        0x0 c:/program files (x86)/gnu tools arm embedded/4.8 2013q4/bin/../lib/gcc/arm-none-eabi/4.8.3/../../../../arm-none-eabi/lib/armv6-m\libg.a(lib_a-refill.o)
 .text.lflush   0x00000000       0x1c c:/program files (x86)/gnu tools arm embedded/4.8 2013q4/bin/../lib/gcc/arm-none-eabi/4.8.3/../../../../arm-none-eabi/lib/armv6-m\libg.a(lib_a-refill.o)
 .text.__srefill_r
                0x00000000      0x120 c:/program files (x86)/gnu tools arm embedded/4.8 2013q4/bin/../lib/gcc/arm-none-eabi/4.8.3/../../../../arm-none-eabi/lib/armv6-m\libg.a(lib_a-refill.o)
 .ARM.attributes
                0x00000000       0x2c c:/program files (x86)/gnu tools arm embedded/4.8 2013q4/bin/../lib/gcc/arm-none-eabi/4.8.3/../../../../arm-none-eabi/lib/armv6-m\libg.a(lib_a-refill.o)
 .debug_frame   0x00000000       0x48 c:/program files (x86)/gnu tools arm embedded/4.8 2013q4/bin/../lib/gcc/arm-none-eabi/4.8.3/../../../../arm-none-eabi/lib/armv6-m\libg.a(lib_a-refill.o)
 .text          0x00000000        0x0 c:/program files (x86)/gnu tools arm embedded/4.8 2013q4/bin/../lib/gcc/arm-none-eabi/4.8.3/../../../../arm-none-eabi/lib/armv6-m\libg.a(lib_a-stdio.o)
 .data          0x00000000        0x0 c:/program files (x86)/gnu tools arm embedded/4.8 2013q4/bin/../lib/gcc/arm-none-eabi/4.8.3/../../../../arm-none-eabi/lib/armv6-m\libg.a(lib_a-stdio.o)
 .bss           0x00000000        0x0 c:/program files (x86)/gnu tools arm embedded/4.8 2013q4/bin/../lib/gcc/arm-none-eabi/4.8.3/../../../../arm-none-eabi/lib/armv6-m\libg.a(lib_a-stdio.o)
 .text.__sread  0x00000000       0x28 c:/program files (x86)/gnu tools arm embedded/4.8 2013q4/bin/../lib/gcc/arm-none-eabi/4.8.3/../../../../arm-none-eabi/lib/armv6-m\libg.a(lib_a-stdio.o)
 .text.__seofread
                0x00000000        0x4 c:/program files (x86)/gnu tools arm embedded/4.8 2013q4/bin/../lib/gcc/arm-none-eabi/4.8.3/../../../../arm-none-eabi/lib/armv6-m\libg.a(lib_a-stdio.o)
 .text.__swrite
                0x00000000       0x38 c:/program files (x86)/gnu tools arm embedded/4.8 2013q4/bin/../lib/gcc/arm-none-eabi/4.8.3/../../../../arm-none-eabi/lib/armv6-m\libg.a(lib_a-stdio.o)
 .text.__sseek  0x00000000       0x2c c:/program files (x86)/gnu tools arm embedded/4.8 2013q4/bin/../lib/gcc/arm-none-eabi/4.8.3/../../../../arm-none-eabi/lib/armv6-m\libg.a(lib_a-stdio.o)
 .text.__sclose
                0x00000000        0xc c:/program files (x86)/gnu tools arm embedded/4.8 2013q4/bin/../lib/gcc/arm-none-eabi/4.8.3/../../../../arm-none-eabi/lib/armv6-m\libg.a(lib_a-stdio.o)
 .ARM.attributes
                0x00000000       0x2c c:/program files (x86)/gnu tools arm embedded/4.8 2013q4/bin/../lib/gcc/arm-none-eabi/4.8.3/../../../../arm-none-eabi/lib/armv6-m\libg.a(lib_a-stdio.o)
 .debug_frame   0x00000000       0x90 c:/program files (x86)/gnu tools arm embedded/4.8 2013q4/bin/../lib/gcc/arm-none-eabi/4.8.3/../../../../arm-none-eabi/lib/armv6-m\libg.a(lib_a-stdio.o)
 .text          0x00000000        0x0 c:/program files (x86)/gnu tools arm embedded/4.8 2013q4/bin/../lib/gcc/arm-none-eabi/4.8.3/../../../../arm-none-eabi/lib/armv6-m\libg.a(lib_a-writer.o)
 .data          0x00000000        0x0 c:/program files (x86)/gnu tools arm embedded/4.8 2013q4/bin/../lib/gcc/arm-none-eabi/4.8.3/../../../../arm-none-eabi/lib/armv6-m\libg.a(lib_a-writer.o)
 .bss           0x00000000        0x0 c:/program files (x86)/gnu tools arm embedded/4.8 2013q4/bin/../lib/gcc/arm-none-eabi/4.8.3/../../../../arm-none-eabi/lib/armv6-m\libg.a(lib_a-writer.o)
 .text._write_r
                0x00000000       0x28 c:/program files (x86)/gnu tools arm embedded/4.8 2013q4/bin/../lib/gcc/arm-none-eabi/4.8.3/../../../../arm-none-eabi/lib/armv6-m\libg.a(lib_a-writer.o)
 .ARM.attributes
                0x00000000       0x2c c:/program files (x86)/gnu tools arm embedded/4.8 2013q4/bin/../lib/gcc/arm-none-eabi/4.8.3/../../../../arm-none-eabi/lib/armv6-m\libg.a(lib_a-writer.o)
 .debug_frame   0x00000000       0x2c c:/program files (x86)/gnu tools arm embedded/4.8 2013q4/bin/../lib/gcc/arm-none-eabi/4.8.3/../../../../arm-none-eabi/lib/armv6-m\libg.a(lib_a-writer.o)
 .text          0x00000000        0x0 c:/program files (x86)/gnu tools arm embedded/4.8 2013q4/bin/../lib/gcc/arm-none-eabi/4.8.3/../../../../arm-none-eabi/lib/armv6-m\libg.a(lib_a-closer.o)
 .data          0x00000000        0x0 c:/program files (x86)/gnu tools arm embedded/4.8 2013q4/bin/../lib/gcc/arm-none-eabi/4.8.3/../../../../arm-none-eabi/lib/armv6-m\libg.a(lib_a-closer.o)
 .bss           0x00000000        0x0 c:/program files (x86)/gnu tools arm embedded/4.8 2013q4/bin/../lib/gcc/arm-none-eabi/4.8.3/../../../../arm-none-eabi/lib/armv6-m\libg.a(lib_a-closer.o)
 .text._close_r
                0x00000000       0x24 c:/program files (x86)/gnu tools arm embedded/4.8 2013q4/bin/../lib/gcc/arm-none-eabi/4.8.3/../../../../arm-none-eabi/lib/armv6-m\libg.a(lib_a-closer.o)
 .ARM.attributes
                0x00000000       0x2c c:/program files (x86)/gnu tools arm embedded/4.8 2013q4/bin/../lib/gcc/arm-none-eabi/4.8.3/../../../../arm-none-eabi/lib/armv6-m\libg.a(lib_a-closer.o)
 .debug_frame   0x00000000       0x2c c:/program files (x86)/gnu tools arm embedded/4.8 2013q4/bin/../lib/gcc/arm-none-eabi/4.8.3/../../../../arm-none-eabi/lib/armv6-m\libg.a(lib_a-closer.o)
 .text          0x00000000        0x0 c:/program files (x86)/gnu tools arm embedded/4.8 2013q4/bin/../lib/gcc/arm-none-eabi/4.8.3/../../../../arm-none-eabi/lib/armv6-m\libg.a(lib_a-fclose.o)
 .data          0x00000000        0x0 c:/program files (x86)/gnu tools arm embedded/4.8 2013q4/bin/../lib/gcc/arm-none-eabi/4.8.3/../../../../arm-none-eabi/lib/armv6-m\libg.a(lib_a-fclose.o)
 .bss           0x00000000        0x0 c:/program files (x86)/gnu tools arm embedded/4.8 2013q4/bin/../lib/gcc/arm-none-eabi/4.8.3/../../../../arm-none-eabi/lib/armv6-m\libg.a(lib_a-fclose.o)
 .text._fclose_r
                0x00000000       0x8c c:/program files (x86)/gnu tools arm embedded/4.8 2013q4/bin/../lib/gcc/arm-none-eabi/4.8.3/../../../../arm-none-eabi/lib/armv6-m\libg.a(lib_a-fclose.o)
 .text.fclose   0x00000000       0x14 c:/program files (x86)/gnu tools arm embedded/4.8 2013q4/bin/../lib/gcc/arm-none-eabi/4.8.3/../../../../arm-none-eabi/lib/armv6-m\libg.a(lib_a-fclose.o)
 .ARM.attributes
                0x00000000       0x2c c:/program files (x86)/gnu tools arm embedded/4.8 2013q4/bin/../lib/gcc/arm-none-eabi/4.8.3/../../../../arm-none-eabi/lib/armv6-m\libg.a(lib_a-fclose.o)
 .debug_frame   0x00000000       0x44 c:/program files (x86)/gnu tools arm embedded/4.8 2013q4/bin/../lib/gcc/arm-none-eabi/4.8.3/../../../../arm-none-eabi/lib/armv6-m\libg.a(lib_a-fclose.o)
 .text          0x00000000        0x0 c:/program files (x86)/gnu tools arm embedded/4.8 2013q4/bin/../lib/gcc/arm-none-eabi/4.8.3/../../../../arm-none-eabi/lib/armv6-m\libg.a(lib_a-fflush.o)
 .data          0x00000000        0x0 c:/program files (x86)/gnu tools arm embedded/4.8 2013q4/bin/../lib/gcc/arm-none-eabi/4.8.3/../../../../arm-none-eabi/lib/armv6-m\libg.a(lib_a-fflush.o)
 .bss           0x00000000        0x0 c:/program files (x86)/gnu tools arm embedded/4.8 2013q4/bin/../lib/gcc/arm-none-eabi/4.8.3/../../../../arm-none-eabi/lib/armv6-m\libg.a(lib_a-fflush.o)
 .text.__sflush_r
                0x00000000      0x154 c:/program files (x86)/gnu tools arm embedded/4.8 2013q4/bin/../lib/gcc/arm-none-eabi/4.8.3/../../../../arm-none-eabi/lib/armv6-m\libg.a(lib_a-fflush.o)
 .text._fflush_r
                0x00000000       0x2c c:/program files (x86)/gnu tools arm embedded/4.8 2013q4/bin/../lib/gcc/arm-none-eabi/4.8.3/../../../../arm-none-eabi/lib/armv6-m\libg.a(lib_a-fflush.o)
 .text.fflush   0x00000000       0x28 c:/program files (x86)/gnu tools arm embedded/4.8 2013q4/bin/../lib/gcc/arm-none-eabi/4.8.3/../../../../arm-none-eabi/lib/armv6-m\libg.a(lib_a-fflush.o)
 .ARM.attributes
                0x00000000       0x2c c:/program files (x86)/gnu tools arm embedded/4.8 2013q4/bin/../lib/gcc/arm-none-eabi/4.8.3/../../../../arm-none-eabi/lib/armv6-m\libg.a(lib_a-fflush.o)
 .debug_frame   0x00000000       0x68 c:/program files (x86)/gnu tools arm embedded/4.8 2013q4/bin/../lib/gcc/arm-none-eabi/4.8.3/../../../../arm-none-eabi/lib/armv6-m\libg.a(lib_a-fflush.o)
 .text          0x00000000        0x0 c:/program files (x86)/gnu tools arm embedded/4.8 2013q4/bin/../lib/gcc/arm-none-eabi/4.8.3/../../../../arm-none-eabi/lib/armv6-m\libg.a(lib_a-lseekr.o)
 .data          0x00000000        0x0 c:/program files (x86)/gnu tools arm embedded/4.8 2013q4/bin/../lib/gcc/arm-none-eabi/4.8.3/../../../../arm-none-eabi/lib/armv6-m\libg.a(lib_a-lseekr.o)
 .bss           0x00000000        0x0 c:/program files (x86)/gnu tools arm embedded/4.8 2013q4/bin/../lib/gcc/arm-none-eabi/4.8.3/../../../../arm-none-eabi/lib/armv6-m\libg.a(lib_a-lseekr.o)
 .text._lseek_r
                0x00000000       0x28 c:/program files (x86)/gnu tools arm embedded/4.8 2013q4/bin/../lib/gcc/arm-none-eabi/4.8.3/../../../../arm-none-eabi/lib/armv6-m\libg.a(lib_a-lseekr.o)
 .ARM.attributes
                0x00000000       0x2c c:/program files (x86)/gnu tools arm embedded/4.8 2013q4/bin/../lib/gcc/arm-none-eabi/4.8.3/../../../../arm-none-eabi/lib/armv6-m\libg.a(lib_a-lseekr.o)
 .debug_frame   0x00000000       0x2c c:/program files (x86)/gnu tools arm embedded/4.8 2013q4/bin/../lib/gcc/arm-none-eabi/4.8.3/../../../../arm-none-eabi/lib/armv6-m\libg.a(lib_a-lseekr.o)
 .text          0x00000000        0x0 c:/program files (x86)/gnu tools arm embedded/4.8 2013q4/bin/../lib/gcc/arm-none-eabi/4.8.3/../../../../arm-none-eabi/lib/armv6-m\libg.a(lib_a-makebuf.o)
 .data          0x00000000        0x0 c:/program files (x86)/gnu tools arm embedded/4.8 2013q4/bin/../lib/gcc/arm-none-eabi/4.8.3/../../../../arm-none-eabi/lib/armv6-m\libg.a(lib_a-makebuf.o)
 .bss           0x00000000        0x0 c:/program files (x86)/gnu tools arm embedded/4.8 2013q4/bin/../lib/gcc/arm-none-eabi/4.8.3/../../../../arm-none-eabi/lib/armv6-m\libg.a(lib_a-makebuf.o)
 .text.__smakebuf_r
                0x00000000       0xe0 c:/program files (x86)/gnu tools arm embedded/4.8 2013q4/bin/../lib/gcc/arm-none-eabi/4.8.3/../../../../arm-none-eabi/lib/armv6-m\libg.a(lib_a-makebuf.o)
 .ARM.attributes
                0x00000000       0x2c c:/program files (x86)/gnu tools arm embedded/4.8 2013q4/bin/../lib/gcc/arm-none-eabi/4.8.3/../../../../arm-none-eabi/lib/armv6-m\libg.a(lib_a-makebuf.o)
 .debug_frame   0x00000000       0x30 c:/program files (x86)/gnu tools arm embedded/4.8 2013q4/bin/../lib/gcc/arm-none-eabi/4.8.3/../../../../arm-none-eabi/lib/armv6-m\libg.a(lib_a-makebuf.o)
 .text          0x00000000        0x0 c:/program files (x86)/gnu tools arm embedded/4.8 2013q4/bin/../lib/gcc/arm-none-eabi/4.8.3/../../../../arm-none-eabi/lib/armv6-m\libg.a(lib_a-readr.o)
 .data          0x00000000        0x0 c:/program files (x86)/gnu tools arm embedded/4.8 2013q4/bin/../lib/gcc/arm-none-eabi/4.8.3/../../../../arm-none-eabi/lib/armv6-m\libg.a(lib_a-readr.o)
 .bss           0x00000000        0x0 c:/program files (x86)/gnu tools arm embedded/4.8 2013q4/bin/../lib/gcc/arm-none-eabi/4.8.3/../../../../arm-none-eabi/lib/armv6-m\libg.a(lib_a-readr.o)
 .text._read_r  0x00000000       0x28 c:/program files (x86)/gnu tools arm embedded/4.8 2013q4/bin/../lib/gcc/arm-none-eabi/4.8.3/../../../../arm-none-eabi/lib/armv6-m\libg.a(lib_a-readr.o)
 .ARM.attributes
                0x00000000       0x2c c:/program files (x86)/gnu tools arm embedded/4.8 2013q4/bin/../lib/gcc/arm-none-eabi/4.8.3/../../../../arm-none-eabi/lib/armv6-m\libg.a(lib_a-readr.o)
 .debug_frame   0x00000000       0x2c c:/program files (x86)/gnu tools arm embedded/4.8 2013q4/bin/../lib/gcc/arm-none-eabi/4.8.3/../../../../arm-none-eabi/lib/armv6-m\libg.a(lib_a-readr.o)
 .text          0x00000000        0x0 c:/program files (x86)/gnu tools arm embedded/4.8 2013q4/bin/../lib/gcc/arm-none-eabi/4.8.3/../../../../arm-none-eabi/lib/armv6-m\libg.a(lib_a-fstatr.o)
 .data          0x00000000        0x0 c:/program files (x86)/gnu tools arm embedded/4.8 2013q4/bin/../lib/gcc/arm-none-eabi/4.8.3/../../../../arm-none-eabi/lib/armv6-m\libg.a(lib_a-fstatr.o)
 .bss           0x00000000        0x0 c:/program files (x86)/gnu tools arm embedded/4.8 2013q4/bin/../lib/gcc/arm-none-eabi/4.8.3/../../../../arm-none-eabi/lib/armv6-m\libg.a(lib_a-fstatr.o)
 .text._fstat_r
                0x00000000       0x28 c:/program files (x86)/gnu tools arm embedded/4.8 2013q4/bin/../lib/gcc/arm-none-eabi/4.8.3/../../../../arm-none-eabi/lib/armv6-m\libg.a(lib_a-fstatr.o)
 .ARM.attributes
                0x00000000       0x2c c:/program files (x86)/gnu tools arm embedded/4.8 2013q4/bin/../lib/gcc/arm-none-eabi/4.8.3/../../../../arm-none-eabi/lib/armv6-m\libg.a(lib_a-fstatr.o)
 .debug_frame   0x00000000       0x2c c:/program files (x86)/gnu tools arm embedded/4.8 2013q4/bin/../lib/gcc/arm-none-eabi/4.8.3/../../../../arm-none-eabi/lib/armv6-m\libg.a(lib_a-fstatr.o)
 .text          0x00000000        0x0 c:/program files (x86)/gnu tools arm embedded/4.8 2013q4/bin/../lib/gcc/arm-none-eabi/4.8.3/../../../../arm-none-eabi/lib/armv6-m\libg.a(lib_a-isattyr.o)
 .data          0x00000000        0x0 c:/program files (x86)/gnu tools arm embedded/4.8 2013q4/bin/../lib/gcc/arm-none-eabi/4.8.3/../../../../arm-none-eabi/lib/armv6-m\libg.a(lib_a-isattyr.o)
 .bss           0x00000000        0x0 c:/program files (x86)/gnu tools arm embedded/4.8 2013q4/bin/../lib/gcc/arm-none-eabi/4.8.3/../../../../arm-none-eabi/lib/armv6-m\libg.a(lib_a-isattyr.o)
 .text._isatty_r
                0x00000000       0x24 c:/program files (x86)/gnu tools arm embedded/4.8 2013q4/bin/../lib/gcc/arm-none-eabi/4.8.3/../../../../arm-none-eabi/lib/armv6-m\libg.a(lib_a-isattyr.o)
 .ARM.attributes
                0x00000000       0x2c c:/program files (x86)/gnu tools arm embedded/4.8 2013q4/bin/../lib/gcc/arm-none-eabi/4.8.3/../../../../arm-none-eabi/lib/armv6-m\libg.a(lib_a-isattyr.o)
 .debug_frame   0x00000000       0x2c c:/program files (x86)/gnu tools arm embedded/4.8 2013q4/bin/../lib/gcc/arm-none-eabi/4.8.3/../../../../arm-none-eabi/lib/armv6-m\libg.a(lib_a-isattyr.o)

Memory Configuration

Name             Origin             Length             Attributes
rom              0x08000000         0x0001ef00         xr
ram              0x20000000         0x00004000         xrw
*default*        0x00000000         0xffffffff

Linker script and memory map

                0x20004000                _eram = 0x20004000

.text           0x08000000    0x192dc
 *(.isr_vector)
 .isr_vector    0x08000000       0xc4 ..\obj\startup_stm32f0xx.o
                0x08000000                g_pfnVectors
 *(.text*)
 .text.RCC_HSICmd
                0x080000c4       0x1c ..\obj\stm32f0xx_rcc.o
                0x080000c4                RCC_HSICmd
 .text.RCC_LSEConfig
                0x080000e0       0x20 ..\obj\stm32f0xx_rcc.o
                0x080000e0                RCC_LSEConfig
 .text.RCC_LSEDriveConfig
                0x08000100       0x18 ..\obj\stm32f0xx_rcc.o
                0x08000100                RCC_LSEDriveConfig
 .text.RCC_LSICmd
                0x08000118       0x1c ..\obj\stm32f0xx_rcc.o
                0x08000118                RCC_LSICmd
 .text.RCC_PLLConfig
                0x08000134       0x20 ..\obj\stm32f0xx_rcc.o
                0x08000134                RCC_PLLConfig
 .text.RCC_PLLCmd
                0x08000154       0x20 ..\obj\stm32f0xx_rcc.o
                0x08000154                RCC_PLLCmd
 .text.RCC_HSI48Cmd
                0x08000174       0x20 ..\obj\stm32f0xx_rcc.o
                0x08000174                RCC_HSI48Cmd
 .text.RCC_SYSCLKConfig
                0x08000194       0x14 ..\obj\stm32f0xx_rcc.o
                0x08000194                RCC_SYSCLKConfig
 .text.RCC_GetSYSCLKSource
                0x080001a8       0x10 ..\obj\stm32f0xx_rcc.o
                0x080001a8                RCC_GetSYSCLKSource
 .text.RCC_GetClocksFreq
                0x080001b8      0x150 ..\obj\stm32f0xx_rcc.o
                0x080001b8                RCC_GetClocksFreq
 .text.RCC_RTCCLKConfig
                0x08000308       0x10 ..\obj\stm32f0xx_rcc.o
                0x08000308                RCC_RTCCLKConfig
 .text.RCC_RTCCLKCmd
                0x08000318       0x20 ..\obj\stm32f0xx_rcc.o
                0x08000318                RCC_RTCCLKCmd
 .text.RCC_BackupResetCmd
                0x08000338       0x20 ..\obj\stm32f0xx_rcc.o
                0x08000338                RCC_BackupResetCmd
 .text.RCC_AHBPeriphClockCmd
                0x08000358       0x18 ..\obj\stm32f0xx_rcc.o
                0x08000358                RCC_AHBPeriphClockCmd
 .text.RCC_APB2PeriphClockCmd
                0x08000370       0x18 ..\obj\stm32f0xx_rcc.o
                0x08000370                RCC_APB2PeriphClockCmd
 .text.RCC_APB1PeriphClockCmd
                0x08000388       0x18 ..\obj\stm32f0xx_rcc.o
                0x08000388                RCC_APB1PeriphClockCmd
 .text.RCC_APB2PeriphResetCmd
                0x080003a0       0x18 ..\obj\stm32f0xx_rcc.o
                0x080003a0                RCC_APB2PeriphResetCmd
 .text.RCC_APB1PeriphResetCmd
                0x080003b8       0x18 ..\obj\stm32f0xx_rcc.o
                0x080003b8                RCC_APB1PeriphResetCmd
 .text.RCC_GetFlagStatus
                0x080003d0       0x30 ..\obj\stm32f0xx_rcc.o
                0x080003d0                RCC_GetFlagStatus
 .text.pp_hw_rst
                0x08000400       0x34 ..\obj\pinpointer_hw.o
                0x08000400                pp_hw_rst
 .text.pp_hw_power
                0x08000434       0x14 ..\obj\pinpointer_hw.o
                0x08000434                pp_hw_power
 .text.pp_hw_reg_read
                0x08000448       0x60 ..\obj\pinpointer_hw.o
                0x08000448                pp_hw_reg_read
 .text.pp_hw_reg_write
                0x080004a8       0x58 ..\obj\pinpointer_hw.o
                0x080004a8                pp_hw_reg_write
 .text.pp_hw_reg16_read
                0x08000500       0x7c ..\obj\pinpointer_hw.o
                0x08000500                pp_hw_reg16_read
 .text.pp_hw_reg16_write
                0x0800057c       0x6c ..\obj\pinpointer_hw.o
                0x0800057c                pp_hw_reg16_write
 .text.pp_hw_reg32_read
                0x080005e8       0x98 ..\obj\pinpointer_hw.o
                0x080005e8                pp_hw_reg32_read
 .text.pp_hw_reg32_write
                0x08000680       0x7c ..\obj\pinpointer_hw.o
                0x08000680                pp_hw_reg32_write
 .text.pp_hw_burst_read
                0x080006fc       0x50 ..\obj\pinpointer_hw.o
                0x080006fc                pp_hw_burst_read
 .text.pp_hw_burst_write
                0x0800074c       0x58 ..\obj\pinpointer_hw.o
                0x0800074c                pp_hw_burst_write
 .text.pp_hw_prod_burst_write
                0x080007a4       0x58 ..\obj\pinpointer_hw.o
                0x080007a4                pp_hw_prod_burst_write
 .text.pp_hw_seq_write
                0x080007fc       0x64 ..\obj\pinpointer_hw.o
                0x080007fc                pp_hw_seq_write
 .text.pp_hw_prod_seq_write
                0x08000860       0x64 ..\obj\pinpointer_hw.o
                0x08000860                pp_hw_prod_seq_write
 .text.pp_hw_command_write
                0x080008c4      0x280 ..\obj\pinpointer_hw.o
                0x080008c4                pp_hw_command_write
 .text.ADC_DeInit
                0x08000b44       0x24 ..\obj\stm32f0xx_adc.o
                0x08000b44                ADC_DeInit
 .text.ADC_Init
                0x08000b68       0x2c ..\obj\stm32f0xx_adc.o
                0x08000b68                ADC_Init
 .text.ADC_StructInit
                0x08000b94       0x10 ..\obj\stm32f0xx_adc.o
                0x08000b94                ADC_StructInit
 .text.ADC_Cmd  0x08000ba4       0x10 ..\obj\stm32f0xx_adc.o
                0x08000ba4                ADC_Cmd
 .text.ADC_ClockModeConfig
                0x08000bb4        0x4 ..\obj\stm32f0xx_adc.o
                0x08000bb4                ADC_ClockModeConfig
 .text.ADC_TempSensorCmd
                0x08000bb8       0x20 ..\obj\stm32f0xx_adc.o
                0x08000bb8                ADC_TempSensorCmd
 .text.ADC_VrefintCmd
                0x08000bd8       0x20 ..\obj\stm32f0xx_adc.o
                0x08000bd8                ADC_VrefintCmd
 .text.ADC_VbatCmd
                0x08000bf8       0x20 ..\obj\stm32f0xx_adc.o
                0x08000bf8                ADC_VbatCmd
 .text.ADC_ChannelConfig
                0x08000c18        0xc ..\obj\stm32f0xx_adc.o
                0x08000c18                ADC_ChannelConfig
 .text.ADC_GetCalibrationFactor
                0x08000c24       0x2c ..\obj\stm32f0xx_adc.o
                0x08000c24                ADC_GetCalibrationFactor
 .text.ADC_StopOfConversion
                0x08000c50        0xc ..\obj\stm32f0xx_adc.o
                0x08000c50                ADC_StopOfConversion
 .text.ADC_StartOfConversion
                0x08000c5c        0xc ..\obj\stm32f0xx_adc.o
                0x08000c5c                ADC_StartOfConversion
 .text.ADC_DMACmd
                0x08000c68       0x14 ..\obj\stm32f0xx_adc.o
                0x08000c68                ADC_DMACmd
 .text.ADC_DMARequestModeConfig
                0x08000c7c       0x10 ..\obj\stm32f0xx_adc.o
                0x08000c7c                ADC_DMARequestModeConfig
 .text.ADC_GetFlagStatus
                0x08000c8c       0x1c ..\obj\stm32f0xx_adc.o
                0x08000c8c                ADC_GetFlagStatus
 .text.HAL_DAC_DeInit
                0x08000ca8        0x8 ..\obj\DAC.o
                0x08000ca8                HAL_DAC_DeInit
 .text.HAL_DAC_Init
                0x08000cb0       0x2c ..\obj\DAC.o
                0x08000cb0                HAL_DAC_Init
 .text.dac_get_value
                0x08000cdc        0xc ..\obj\DAC.o
                0x08000cdc                dac_get_value
 .text.dac_get_valueUV
                0x08000ce8        0xc ..\obj\DAC.o
                0x08000ce8                dac_get_valueUV
 .text.dac_set_valueUV
                0x08000cf4       0x34 ..\obj\DAC.o
                0x08000cf4                dac_set_valueUV
 .text.dac_set_value
                0x08000d28       0x18 ..\obj\DAC.o
                0x08000d28                dac_set_value
 .text.dac_enable
                0x08000d40        0xc ..\obj\DAC.o
                0x08000d40                dac_enable
 .text.LIS2DM_DeInit
                0x08000d4c        0x4 ..\obj\ACCELERO.o
                0x08000d4c                LIS2DM_DeInit
 .text.LIS2DM_init
                0x08000d50        0x4 ..\obj\ACCELERO.o
                0x08000d50                LIS2DM_init
 .text.pp_conf_get_sync_code_repetition_from_zone
                0x08000d54       0xb0 ..\obj\pp_conf_common.o
                0x08000d54                pp_conf_get_sync_code_repetition_from_zone
 .text.pp_conf_get_demod_code_repetition_from_zone
                0x08000e04       0xb0 ..\obj\pp_conf_common.o
                0x08000e04                pp_conf_get_demod_code_repetition_from_zone
 .text.pp_conf_get_preamble_length
                0x08000eb4       0xc4 ..\obj\pp_conf_common.o
                0x08000eb4                pp_conf_get_preamble_length
 .text.auto_swap
                0x08000f78       0x44 ..\obj\pp_conf_common.o
 .text.pp_conf_crc16
                0x08000fbc       0xe4 ..\obj\pp_conf_common.o
                0x08000fbc                pp_conf_crc16
 .text.threshold_model
                0x080010a0       0xdc ..\obj\pp_conf_common.o
                0x080010a0                threshold_model
 .text.threshold_from_pg_model
                0x0800117c       0xdc ..\obj\pp_conf_common.o
                0x0800117c                threshold_from_pg_model
 .text.HardFault_Handler
                0x08001258       0x14 ..\obj\main.o
                0x08001258                HardFault_Handler
 .text.HardFault_HandlerC
                0x0800126c       0x18 ..\obj\main.o
                0x0800126c                HardFault_HandlerC
 .text.process_sys_command
                0x08001284       0xec ..\obj\main.o
 .text.process_radio_command
                0x08001370      0x1e0 ..\obj\main.o
 .text.process_seq_command
                0x08001550       0x74 ..\obj\main.o
 .text.process_command
                0x080015c4       0x4c ..\obj\main.o
 .text.mainloop
                0x08001610       0x3c ..\obj\main.o
                0x08001610                mainloop
 .text.main     0x0800164c       0x44 ..\obj\main.o
                0x0800164c                main
 .text.add_setting_u32
                0x08001690       0xac ..\obj\pinpointer_config.o
 .text.add_setting_u8
                0x0800173c       0xb0 ..\obj\pinpointer_config.o
 .text.add_setting_tprod_burst
                0x080017ec       0xc8 ..\obj\pinpointer_config.o
 .text.pp_conf_set_enable_lta
                0x080018b4       0x24 ..\obj\pinpointer_config.o
                0x080018b4                pp_conf_set_enable_lta
 .text.pp_conf_get_enable_lta
                0x080018d8       0x18 ..\obj\pinpointer_config.o
                0x080018d8                pp_conf_get_enable_lta
 .text.pp_conf_init
                0x080018f0      0x140 ..\obj\pinpointer_config.o
                0x080018f0                pp_conf_init
 .text.prep_conf_1v2pll_boost
                0x08001a30      0x148 ..\obj\pinpointer_config.o
 .text.prep_conf_timeout
                0x08001b78      0x158 ..\obj\pinpointer_config.o
 .text.pp_log2  0x08001cd0       0x54 ..\obj\pinpointer_config.o
 .text.prep_conf_differential_detection
                0x08001d24      0x12c ..\obj\pinpointer_config.o
 .text.prep_conf_sync_code
                0x08001e50      0x254 ..\obj\pinpointer_config.o
 .text.prep_conf_demod_code
                0x080020a4      0x254 ..\obj\pinpointer_config.o
 .text.prep_conf_channel
                0x080022f8      0x190 ..\obj\pinpointer_config.o
 .text.prep_conf_tx_gain
                0x08002488       0x30 ..\obj\pinpointer_config.o
 .text.prep_conf_rx_gain
                0x080024b8       0x30 ..\obj\pinpointer_config.o
 .text.prep_conf_clktracking
                0x080024e8      0x164 ..\obj\pinpointer_config.o
 .text.prep_conf_preamble_length
                0x0800264c       0x5c ..\obj\pinpointer_config.o
 .text.prep_conf_sync_threshold
                0x080026a8       0xf0 ..\obj\pinpointer_config.o
 .text.prep_conf_rng_threshold
                0x08002798       0xf0 ..\obj\pinpointer_config.o
 .text.pp_conf_get_live_threshold_from_zone
                0x08002888       0x90 ..\obj\pinpointer_config.o
                0x08002888                pp_conf_get_live_threshold_from_zone
 .text.pp_conf_get_threshold_from_zone
                0x08002918       0xdc ..\obj\pinpointer_config.o
                0x08002918                pp_conf_get_threshold_from_zone
 .text.pp_conf_get_prod_threshold_from_zone
                0x080029f4       0x94 ..\obj\pinpointer_config.o
                0x080029f4                pp_conf_get_prod_threshold_from_zone
 .text.get_default_config_phy
                0x08002a88       0xec ..\obj\pinpointer_config.o
 .text.set_config_phy
                0x08002b74      0x590 ..\obj\pinpointer_config.o
                0x08002b74                set_config_phy
 .text.prep_config_init
                0x08003104      0x178 ..\obj\pinpointer_config.o
                0x08003104                prep_config_init
 .text.get_fw_msq
                0x0800327c       0x20 ..\obj\pinpointer_config.o
                0x0800327c                get_fw_msq
 .text.prep_config_pm
                0x0800329c      0x104 ..\obj\pinpointer_config.o
                0x0800329c                prep_config_pm
 .text.get_config_pm
                0x080033a0       0x7c ..\obj\pinpointer_config.o
                0x080033a0                get_config_pm
 .text.set_new_pm
                0x0800341c      0x1e4 ..\obj\pinpointer_config.o
                0x0800341c                set_new_pm
 .text.get_current_config_phy
                0x08003600       0x14 ..\obj\pinpointer_config.o
                0x08003600                get_current_config_phy
 .text.get_zoneDefault
                0x08003614       0x14 ..\obj\pinpointer_config.o
                0x08003614                get_zoneDefault
 .text.pp_conf_get_root_threshold
                0x08003628       0x64 ..\obj\pinpointer_config.o
                0x08003628                pp_conf_get_root_threshold
 .text.pp_conf_set_root_threshold
                0x0800368c       0x64 ..\obj\pinpointer_config.o
                0x0800368c                pp_conf_set_root_threshold
 .text.pp_conf_set_temperature
                0x080036f0       0x20 ..\obj\pinpointer_config.o
                0x080036f0                pp_conf_set_temperature
 .text.HAL_Enable_PLL
                0x08003710       0x62 ..\obj\RCC.o
 *fill*         0x08003772        0x2 
 .text.HAL_RCC_LowClockInit
                0x08003774       0x70 ..\obj\RCC.o
                0x08003774                HAL_RCC_LowClockInit
 .text.HAL_RCC_Init
                0x080037e4       0x24 ..\obj\RCC.o
                0x080037e4                HAL_RCC_Init
 .text.HAL_MCU_Stop_Mode
                0x08003808       0x18 ..\obj\RCC.o
                0x08003808                HAL_MCU_Stop_Mode
 .text.HAL_MCU_Standby_Mode
                0x08003820       0x10 ..\obj\RCC.o
                0x08003820                HAL_MCU_Standby_Mode
 .text.HAL_Out_of_LowPower_Mode
                0x08003830       0x10 ..\obj\RCC.o
                0x08003830                HAL_Out_of_LowPower_Mode
 .text.Reset_Handler
                0x08003840       0x4c ..\obj\startup_stm32f0xx.o
                0x08003840                Reset_Handler
 .text.Default_Handler
                0x0800388c        0x2 ..\obj\startup_stm32f0xx.o
                0x0800388c                TIM1_CC_IRQHandler
                0x0800388c                TSC_IRQHandler
                0x0800388c                ADC1_COMP_IRQHandler
                0x0800388c                SysTick_Handler
                0x0800388c                PendSV_Handler
                0x0800388c                NMI_Handler
                0x0800388c                I2C1_IRQHandler
                0x0800388c                RCC_CRS_IRQHandler
                0x0800388c                SPI1_IRQHandler
                0x0800388c                TIM6_DAC_IRQHandler
                0x0800388c                USART3_4_IRQHandler
                0x0800388c                I2C2_IRQHandler
                0x0800388c                TIM17_IRQHandler
                0x0800388c                CEC_CAN_IRQHandler
                0x0800388c                PVD_VDDIO2_IRQHandler
                0x0800388c                DMA1_Channel4_5_6_7_IRQHandler
                0x0800388c                TIM16_IRQHandler
                0x0800388c                TIM3_IRQHandler
                0x0800388c                Default_Handler
                0x0800388c                TIM7_IRQHandler
                0x0800388c                TIM15_IRQHandler
                0x0800388c                USB_IRQHandler
                0x0800388c                SPI2_IRQHandler
                0x0800388c                SVC_Handler
                0x0800388c                WWDG_IRQHandler
                0x0800388c                DMA1_Channel2_3_IRQHandler
                0x0800388c                USART2_IRQHandler
                0x0800388c                FLASH_IRQHandler
                0x0800388c                USART1_IRQHandler
                0x0800388c                TIM1_BRK_UP_TRG_COM_IRQHandler
 *fill*         0x0800388e        0x2 
 .text.get_phy_fct
                0x08003890        0xc ..\obj\ShellCommand_radio.o
                0x08003890                get_phy_fct
 .text.set_phy_fct
                0x0800389c       0xa0 ..\obj\ShellCommand_radio.o
                0x0800389c                set_phy_fct
 .text.pm_fct   0x0800393c       0x88 ..\obj\ShellCommand_radio.o
                0x0800393c                pm_fct
 .text.tx_cont_fct
                0x080039c4       0xdc ..\obj\ShellCommand_radio.o
                0x080039c4                tx_cont_fct
 .text.cw_sweep_fct
                0x08003aa0       0x78 ..\obj\ShellCommand_radio.o
                0x08003aa0                cw_sweep_fct
 .text.ones32   0x08003b18       0x64 ..\obj\utils.o
                0x08003b18                ones32
 .text.floor_log2
                0x08003b7c       0x50 ..\obj\utils.o
                0x08003b7c                floor_log2
 .text.seq_get_cfg_buffer
                0x08003bcc       0x20 ..\obj\module_api_seq.o
                0x08003bcc                seq_get_cfg_buffer
 .text.seq_get_sequence_data
                0x08003bec       0x64 ..\obj\module_api_seq.o
                0x08003bec                seq_get_sequence_data
 .text.seq_init
                0x08003c50       0x18 ..\obj\module_api_seq.o
                0x08003c50                seq_init
 .text.seq_manage_hardFault
                0x08003c68        0x8 ..\obj\module_api_seq.o
                0x08003c68                seq_manage_hardFault
 .text.seq_is_cfg_busy
                0x08003c70       0x20 ..\obj\module_api_seq.o
                0x08003c70                seq_is_cfg_busy
 .text.seq_set_cfg_busy
                0x08003c90       0x48 ..\obj\module_api_seq.o
                0x08003c90                seq_set_cfg_busy
 .text.seq_get_cfg
                0x08003cd8       0x40 ..\obj\module_api_seq.o
                0x08003cd8                seq_get_cfg
 .text.seq_set_cfg
                0x08003d18       0x48 ..\obj\module_api_seq.o
                0x08003d18                seq_set_cfg
 .text.seq_queue_single_act
                0x08003d60       0x88 ..\obj\module_api_seq.o
                0x08003d60                seq_queue_single_act
 .text.seq_start
                0x08003de8      0x26c ..\obj\module_api_seq.o
                0x08003de8                seq_start
 .text.seq_run  0x08004054      0x244 ..\obj\module_api_seq.o
                0x08004054                seq_run
 .text.seq_stop
                0x08004298       0x84 ..\obj\module_api_seq.o
                0x08004298                seq_stop
 .text.seq_ctrl_prepare
                0x0800431c       0x4c ..\obj\module_api_seq.o
                0x0800431c                seq_ctrl_prepare
 .text.seq_ctrl
                0x08004368       0x58 ..\obj\module_api_seq.o
                0x08004368                seq_ctrl
 .text.seq_process
                0x080043c0       0x28 ..\obj\module_api_seq.o
                0x080043c0                seq_process
 .text.seq_checkcache
                0x080043e8      0x14c ..\obj\module_api_seq.o
                0x080043e8                seq_checkcache
 .text.do_gpioconfigure
                0x08004534       0x7a ..\obj\GPIO.o
 *fill*         0x080045ae        0x2 
 .text.HAL_GPIO_DeInit
                0x080045b0       0x64 ..\obj\GPIO.o
                0x080045b0                HAL_GPIO_DeInit
 .text.HAL_GPIO_Init
                0x08004614      0x23c ..\obj\GPIO.o
                0x08004614                HAL_GPIO_Init
 .text.HAL_GPIO_Show
                0x08004850      0x184 ..\obj\GPIO.o
                0x08004850                HAL_GPIO_Show
 .text.HAL_GPIO_LowPower
                0x080049d4       0xa4 ..\obj\GPIO.o
                0x080049d4                HAL_GPIO_LowPower
 .text.HAL_GPIO_OutOfLowPower
                0x08004a78       0x24 ..\obj\GPIO.o
                0x08004a78                HAL_GPIO_OutOfLowPower
 .text.do_gpioshow.isra.0
                0x08004a9c       0xe4 ..\obj\GPIO.o
 .text.DMA_DeInit
                0x08004b80       0xa8 ..\obj\stm32f0xx_dma.o
                0x08004b80                DMA_DeInit
 .text.DMA_Init
                0x08004c28       0x3c ..\obj\stm32f0xx_dma.o
                0x08004c28                DMA_Init
 .text.DMA_Cmd  0x08004c64       0x1c ..\obj\stm32f0xx_dma.o
                0x08004c64                DMA_Cmd
 .text.DMA_ITConfig
                0x08004c80       0x14 ..\obj\stm32f0xx_dma.o
                0x08004c80                DMA_ITConfig
 .text.DMA_GetFlagStatus
                0x08004c94       0x14 ..\obj\stm32f0xx_dma.o
                0x08004c94                DMA_GetFlagStatus
 .text.DMA_ClearFlag
                0x08004ca8        0xc ..\obj\stm32f0xx_dma.o
                0x08004ca8                DMA_ClearFlag
 .text.DMA_GetITStatus
                0x08004cb4       0x14 ..\obj\stm32f0xx_dma.o
                0x08004cb4                DMA_GetITStatus
 .text.DMA_ClearITPendingBit
                0x08004cc8        0xc ..\obj\stm32f0xx_dma.o
                0x08004cc8                DMA_ClearITPendingBit
 .text.HAL_TIMER2_Init
                0x08004cd4       0x3c ..\obj\TIMER.o
                0x08004cd4                HAL_TIMER2_Init
 .text.TIM2_IRQHandler
                0x08004d10       0x1c ..\obj\TIMER.o
                0x08004d10                TIM2_IRQHandler
 .text.HAL_TIMER3_Init
                0x08004d2c       0x64 ..\obj\TIMER.o
                0x08004d2c                HAL_TIMER3_Init
 .text.TIM14_IRQHandler
                0x08004d90       0xa4 ..\obj\TIMER.o
                0x08004d90                TIM14_IRQHandler
 .text.HAL_TIMER_LSI_Autocalibration
                0x08004e34       0xc8 ..\obj\TIMER.o
                0x08004e34                HAL_TIMER_LSI_Autocalibration
 .text.start_waitcounter_timeBase
                0x08004efc       0x24 ..\obj\TIMER.o
 .text.check_waitcounter_running
                0x08004f20       0x2c ..\obj\TIMER.o
 .text.msleep   0x08004f4c       0x1c ..\obj\TIMER.o
                0x08004f4c                msleep
 .text.udelay   0x08004f68       0x14 ..\obj\TIMER.o
                0x08004f68                udelay
 .text.HAL_TIMER_Init
                0x08004f7c       0x10 ..\obj\TIMER.o
                0x08004f7c                HAL_TIMER_Init
 .text.HAL_ADC_DeInit
                0x08004f8c       0x10 ..\obj\ADC.o
                0x08004f8c                HAL_ADC_DeInit
 .text.HAL_ADC_Init
                0x08004f9c       0xfc ..\obj\ADC.o
                0x08004f9c                HAL_ADC_Init
 .text.DMA1_Channel1_IRQHandler
                0x08005098       0x20 ..\obj\ADC.o
                0x08005098                DMA1_Channel1_IRQHandler
 .text.HAL_ADC_Start
                0x080050b8       0x2c ..\obj\ADC.o
 .text.HAL_ADC_Read_Values
                0x080050e4      0x134 ..\obj\ADC.o
                0x080050e4                HAL_ADC_Read_Values
 .text.resetComm
                0x08005218       0x88 ..\obj\Ext_Com.o
 .text.uwb_com_ext
                0x080052a0      0x2f4 ..\obj\Ext_Com.o
                0x080052a0                uwb_com_ext
 .text.PrintChar
                0x08005594       0x44 ..\obj\printf.o
                0x08005594                PrintChar
 .text.PutChar  0x080055d8        0x8 ..\obj\printf.o
                0x080055d8                PutChar
 .text.PutString
                0x080055e0       0x14 ..\obj\printf.o
                0x080055e0                PutString
 .text.PutUnsignedInt
                0x080055f4       0x68 ..\obj\printf.o
                0x080055f4                PutUnsignedInt
 .text.PutSignedInt
                0x0800565c       0xa4 ..\obj\printf.o
                0x0800565c                PutSignedInt
 .text.PutUnsignedLong
                0x08005700       0x68 ..\obj\printf.o
                0x08005700                PutUnsignedLong
 .text.PutHexa  0x08005768       0x7c ..\obj\printf.o
                0x08005768                PutHexa
 .text.vsnprintf
                0x080057e4      0x180 ..\obj\printf.o
                0x080057e4                vsnprintf
 .text.vsprintf
                0x08005964       0x10 ..\obj\printf.o
                0x08005964                vsprintf
 .text.vfprintf
                0x08005974       0x18 ..\obj\printf.o
                0x08005974                vfprintf
 .text.vprintf  0x0800598c       0x18 ..\obj\printf.o
                0x0800598c                vprintf
 .text.printf   0x080059a4       0x18 ..\obj\printf.o
                0x080059a4                printf
 .text.fputc    0x080059bc       0x28 ..\obj\printf.o
                0x080059bc                fputc
 .text.fputs    0x080059e4       0x24 ..\obj\printf.o
                0x080059e4                fputs
 .text.radio_is_init_busy
                0x08005a08       0x20 ..\obj\module_api_radio.o
                0x08005a08                radio_is_init_busy
 .text.radio_set_init_busy
                0x08005a28       0x48 ..\obj\module_api_radio.o
                0x08005a28                radio_set_init_busy
 .text.radio_msq_init
                0x08005a70      0x114 ..\obj\module_api_radio.o
                0x08005a70                radio_msq_init
 .text.radio_showCurPhyAndDac
                0x08005b84      0x1a0 ..\obj\module_api_radio.o
                0x08005b84                radio_showCurPhyAndDac
 .text.radio_init
                0x08005d24      0x200 ..\obj\module_api_radio.o
                0x08005d24                radio_init
 .text.radio_manage_hardFault
                0x08005f24        0x8 ..\obj\module_api_radio.o
                0x08005f24                radio_manage_hardFault
 .text.radio_is_spiwr_busy
                0x08005f2c       0x20 ..\obj\module_api_radio.o
                0x08005f2c                radio_is_spiwr_busy
 .text.radio_set_spiwr_busy
                0x08005f4c       0x48 ..\obj\module_api_radio.o
                0x08005f4c                radio_set_spiwr_busy
 .text.radio_spi_write_get_buf
                0x08005f94       0x2c ..\obj\module_api_radio.o
                0x08005f94                radio_spi_write_get_buf
 .text.radio_spi_write
                0x08005fc0       0x44 ..\obj\module_api_radio.o
                0x08005fc0                radio_spi_write
 .text.radio_spi_read
                0x08006004       0x34 ..\obj\module_api_radio.o
                0x08006004                radio_spi_read
 .text.radio_is_pmstate_busy
                0x08006038       0x20 ..\obj\module_api_radio.o
                0x08006038                radio_is_pmstate_busy
 .text.radio_set_pmstate_busy
                0x08006058       0x48 ..\obj\module_api_radio.o
                0x08006058                radio_set_pmstate_busy
 .text.radio_get_pmstate
                0x080060a0       0x20 ..\obj\module_api_radio.o
                0x080060a0                radio_get_pmstate
 .text.radio_set_pmstate
                0x080060c0       0x48 ..\obj\module_api_radio.o
                0x080060c0                radio_set_pmstate
 .text.radio_is_phy_cfg_busy
                0x08006108       0x20 ..\obj\module_api_radio.o
                0x08006108                radio_is_phy_cfg_busy
 .text.radio_set_phy_cfg_busy
                0x08006128       0x48 ..\obj\module_api_radio.o
                0x08006128                radio_set_phy_cfg_busy
 .text.radio_get_phy_cfg_data
                0x08006170       0x1c ..\obj\module_api_radio.o
                0x08006170                radio_get_phy_cfg_data
 .text.radio_get_phy_cfg
                0x0800618c       0x78 ..\obj\module_api_radio.o
                0x0800618c                radio_get_phy_cfg
 .text.radio_set_phy_cfg
                0x08006204       0xd0 ..\obj\module_api_radio.o
                0x08006204                radio_set_phy_cfg
 .text.radio_get_rx_cfg_data
                0x080062d4       0x20 ..\obj\module_api_radio.o
                0x080062d4                radio_get_rx_cfg_data
 .text.radio_is_rx_cfg_busy
                0x080062f4       0x20 ..\obj\module_api_radio.o
                0x080062f4                radio_is_rx_cfg_busy
 .text.radio_set_rx_cfg_busy
                0x08006314       0x48 ..\obj\module_api_radio.o
                0x08006314                radio_set_rx_cfg_busy
 .text.radio_get_rx_cfg
                0x0800635c       0x54 ..\obj\module_api_radio.o
                0x0800635c                radio_get_rx_cfg
 .text.radio_set_rx_cfg
                0x080063b0       0x68 ..\obj\module_api_radio.o
                0x080063b0                radio_set_rx_cfg
 .text.radio_clear_IT
                0x08006418       0x80 ..\obj\module_api_radio.o
 .text.radio_clear_rng_timer
                0x08006498       0x60 ..\obj\module_api_radio.o
                0x08006498                radio_clear_rng_timer
 .text.radio_lta_IR_management
                0x080064f8       0x8c ..\obj\module_api_radio.o
                0x080064f8                radio_lta_IR_management
 .text.radio_lta_temp_management
                0x08006584       0xa4 ..\obj\module_api_radio.o
                0x08006584                radio_lta_temp_management
 .text.radio_set_tx_data_buf_size
                0x08006628       0x24 ..\obj\module_api_radio.o
                0x08006628                radio_set_tx_data_buf_size
 .text.radio_get_tx_data_buf
                0x0800664c       0x44 ..\obj\module_api_radio.o
                0x0800664c                radio_get_tx_data_buf
 .text.radio_write_tx_data
                0x08006690      0x1b0 ..\obj\module_api_radio.o
                0x08006690                radio_write_tx_data
 .text.radio_get_rx_data_size
                0x08006840       0x1c ..\obj\module_api_radio.o
                0x08006840                radio_get_rx_data_size
 .text.radio_get_rx_data_checksum
                0x0800685c       0x18 ..\obj\module_api_radio.o
                0x0800685c                radio_get_rx_data_checksum
 .text.radio_get_rx_buf
                0x08006874       0x20 ..\obj\module_api_radio.o
                0x08006874                radio_get_rx_buf
 .text.radio_tx_start
                0x08006894      0x108 ..\obj\module_api_radio.o
                0x08006894                radio_tx_start
 .text.radio_rx_start
                0x0800699c      0x268 ..\obj\module_api_radio.o
                0x0800699c                radio_rx_start
 .text.radio_is_tx_finished
                0x08006c04       0x64 ..\obj\module_api_radio.o
                0x08006c04                radio_is_tx_finished
 .text.radio_compute_dll_fine
                0x08006c68      0x15c ..\obj\module_api_radio.o
 .text.radio_clock_track_get_drift
                0x08006dc4      0x154 ..\obj\module_api_radio.o
 .text.radio_rx_process_toa
                0x08006f18     0x1070 ..\obj\module_api_radio.o
 .text.radio_get_SnrDbScaled
                0x08007f88      0x130 ..\obj\module_api_radio.o
 .text.radio_get_rng_data_generic
                0x080080b8      0xe1c ..\obj\module_api_radio.o
 .text.radio_is_rx_finished
                0x08008ed4      0x55c ..\obj\module_api_radio.o
                0x08008ed4                radio_is_rx_finished
 .text.radio_tx_end
                0x08009430       0x34 ..\obj\module_api_radio.o
                0x08009430                radio_tx_end
 .text.radio_rx_end
                0x08009464       0x34 ..\obj\module_api_radio.o
                0x08009464                radio_rx_end
 .text.radio_phy_ctrl_prepare
                0x08009498       0xb8 ..\obj\module_api_radio.o
                0x08009498                radio_phy_ctrl_prepare
 .text.radio_phy_ctrl
                0x08009550       0x78 ..\obj\module_api_radio.o
                0x08009550                radio_phy_ctrl
 .text.radio_process
                0x080095c8       0xd4 ..\obj\module_api_radio.o
                0x080095c8                radio_process
 .text.radio_checkcache
                0x0800969c       0x80 ..\obj\module_api_radio.o
                0x0800969c                radio_checkcache
 .text.HAL_I2C_DeInit
                0x0800971c        0x4 ..\obj\I2C.o
                0x0800971c                HAL_I2C_DeInit
 .text.HAL_I2C_Init
                0x08009720        0x4 ..\obj\I2C.o
                0x08009720                HAL_I2C_Init
 .text.OSAL_get_prodSection
                0x08009724        0xc ..\obj\prodSection_read.o
                0x08009724                OSAL_get_prodSection
 .text.SPI_I2S_DeInit
                0x08009730       0x44 ..\obj\stm32f0xx_spi.o
                0x08009730                SPI_I2S_DeInit
 .text.SPI_Init
                0x08009774       0x54 ..\obj\stm32f0xx_spi.o
                0x08009774                SPI_Init
 .text.SPI_Cmd  0x080097c8       0x14 ..\obj\stm32f0xx_spi.o
                0x080097c8                SPI_Cmd
 .text.SPI_RxFIFOThresholdConfig
                0x080097dc       0x14 ..\obj\stm32f0xx_spi.o
                0x080097dc                SPI_RxFIFOThresholdConfig
 .text.SPI_SSOutputCmd
                0x080097f0       0x14 ..\obj\stm32f0xx_spi.o
                0x080097f0                SPI_SSOutputCmd
 .text.SPI_ReceiveData8
                0x08009804        0x8 ..\obj\stm32f0xx_spi.o
                0x08009804                SPI_ReceiveData8
 .text.SPI_I2S_DMACmd
                0x0800980c       0x14 ..\obj\stm32f0xx_spi.o
                0x0800980c                SPI_I2S_DMACmd
 .text.SPI_GetTransmissionFIFOStatus
                0x08009820        0xc ..\obj\stm32f0xx_spi.o
                0x08009820                SPI_GetTransmissionFIFOStatus
 .text.SPI_GetReceptionFIFOStatus
                0x0800982c        0xc ..\obj\stm32f0xx_spi.o
                0x0800982c                SPI_GetReceptionFIFOStatus
 .text.SPI_I2S_GetFlagStatus
                0x08009838        0xc ..\obj\stm32f0xx_spi.o
                0x08009838                SPI_I2S_GetFlagStatus
 .text.msq_init
                0x08009844       0xb0 ..\obj\msq_config.o
                0x08009844                msq_init
 .text.msq_mem_init
                0x080098f4       0x58 ..\obj\msq_config.o
                0x080098f4                msq_mem_init
 .text.msq_ld_fw
                0x0800994c       0x38 ..\obj\msq_config.o
                0x0800994c                msq_ld_fw
 .text.msq_ld_seq
                0x08009984      0x3ac ..\obj\msq_config.o
                0x08009984                msq_ld_seq
 .text.wait_for_msq_ready_timeout
                0x08009d30       0x64 ..\obj\msq_config.o
                0x08009d30                wait_for_msq_ready_timeout
 .text.msq_start
                0x08009d94       0xac ..\obj\msq_config.o
                0x08009d94                msq_start
 .text.msq_seq_write
                0x08009e40       0xc8 ..\obj\msq_config.o
                0x08009e40                msq_seq_write
 .text.msq_run_test
                0x08009f08       0x68 ..\obj\msq_config.o
                0x08009f08                msq_run_test
 .text.msq_get_state
                0x08009f70       0x28 ..\obj\msq_config.o
                0x08009f70                msq_get_state
 .text.msq_stop
                0x08009f98       0x1c ..\obj\msq_config.o
                0x08009f98                msq_stop
 .text.msq_mux_cfg
                0x08009fb4       0x84 ..\obj\msq_config.o
                0x08009fb4                msq_mux_cfg
 .text.msq_write_eos
                0x0800a038       0x84 ..\obj\msq_config.o
                0x0800a038                msq_write_eos
 .text.msq_write_raw_seq
                0x0800a0bc      0x1e8 ..\obj\msq_config.o
                0x0800a0bc                msq_write_raw_seq
 .text.msq_write_pm_seq
                0x0800a2a4      0x1ac ..\obj\msq_config.o
                0x0800a2a4                msq_write_pm_seq
 .text.msq_write_pm
                0x0800a450      0x3a8 ..\obj\msq_config.o
                0x0800a450                msq_write_pm
 .text.msq_DCO_start
                0x0800a7f8       0x84 ..\obj\msq_config.o
                0x0800a7f8                msq_DCO_start
 .text.msq_DCO_stop
                0x0800a87c       0x78 ..\obj\msq_config.o
                0x0800a87c                msq_DCO_stop
 .text.uwb_com_create_command
                0x0800a8f4      0x368 ..\obj\uwbmodule_com_common.o
                0x0800a8f4                uwb_com_create_command
 .text.uwb_com_analyze_gotcommand
                0x0800ac5c      0x1b0 ..\obj\uwbmodule_com_common.o
                0x0800ac5c                uwb_com_analyze_gotcommand
 .text.uwb_com_answer_gotcommand
                0x0800ae0c       0x78 ..\obj\uwbmodule_com_common.o
                0x0800ae0c                uwb_com_answer_gotcommand
 .text.uwb_enqueue_cmd
                0x0800ae84       0xa8 ..\obj\uwbmodule_com_common.o
                0x0800ae84                uwb_enqueue_cmd
 .text.uwb_dequeue_cmd
                0x0800af2c       0x78 ..\obj\uwbmodule_com_common.o
                0x0800af2c                uwb_dequeue_cmd
 .text.uwb_get_queue_info
                0x0800afa4       0x54 ..\obj\uwbmodule_com_common.o
                0x0800afa4                uwb_get_queue_info
 .text.uwb_is_queue_full
                0x0800aff8       0x1c ..\obj\uwbmodule_com_common.o
                0x0800aff8                uwb_is_queue_full
 .text.uwb_clean_queue
                0x0800b014       0x30 ..\obj\uwbmodule_com_common.o
                0x0800b014                uwb_clean_queue
 .text.HAL_EXTI_DeInit
                0x0800b044        0xc ..\obj\EXTI.o
                0x0800b044                HAL_EXTI_DeInit
 .text.HAL_EXTI_Init
                0x0800b050      0x144 ..\obj\EXTI.o
                0x0800b050                HAL_EXTI_Init
 .text.HAL_EXTI_LowPower
                0x0800b194       0x24 ..\obj\EXTI.o
                0x0800b194                HAL_EXTI_LowPower
 .text.RTC_IRQHandler
                0x0800b1b8       0x24 ..\obj\EXTI.o
                0x0800b1b8                RTC_IRQHandler
 .text.EXTI0_1_IRQHandler
                0x0800b1dc       0x28 ..\obj\EXTI.o
                0x0800b1dc                EXTI0_1_IRQHandler
 .text.EXTI2_3_IRQHandler
                0x0800b204       0x28 ..\obj\EXTI.o
                0x0800b204                EXTI2_3_IRQHandler
 .text.EXTI4_15_IRQHandler
                0x0800b22c      0x138 ..\obj\EXTI.o
                0x0800b22c                EXTI4_15_IRQHandler
 .text.GPIO_Init
                0x0800b364       0x90 ..\obj\stm32f0xx_gpio.o
                0x0800b364                GPIO_Init
 .text.GPIO_StructInit
                0x0800b3f4       0x18 ..\obj\stm32f0xx_gpio.o
                0x0800b3f4                GPIO_StructInit
 .text.GPIO_ReadInputDataBit
                0x0800b40c        0xc ..\obj\stm32f0xx_gpio.o
                0x0800b40c                GPIO_ReadInputDataBit
 .text.GPIO_ReadInputData
                0x0800b418        0x8 ..\obj\stm32f0xx_gpio.o
                0x0800b418                GPIO_ReadInputData
 .text.GPIO_ReadOutputDataBit
                0x0800b420        0xc ..\obj\stm32f0xx_gpio.o
                0x0800b420                GPIO_ReadOutputDataBit
 .text.GPIO_ReadOutputData
                0x0800b42c        0x8 ..\obj\stm32f0xx_gpio.o
                0x0800b42c                GPIO_ReadOutputData
 .text.GPIO_SetBits
                0x0800b434        0x4 ..\obj\stm32f0xx_gpio.o
                0x0800b434                GPIO_SetBits
 .text.GPIO_ResetBits
                0x0800b438        0x4 ..\obj\stm32f0xx_gpio.o
                0x0800b438                GPIO_ResetBits
 .text.GPIO_PinAFConfig
                0x0800b43c       0x24 ..\obj\stm32f0xx_gpio.o
                0x0800b43c                GPIO_PinAFConfig
 .text.sys_get_shared_buf
                0x0800b460       0xd0 ..\obj\module_api_sys.o
                0x0800b460                sys_get_shared_buf
 .text.sys_get_shared_data
                0x0800b530       0xb8 ..\obj\module_api_sys.o
                0x0800b530                sys_get_shared_data
 .text.sys_set_shared_data_size
                0x0800b5e8       0x6c ..\obj\module_api_sys.o
                0x0800b5e8                sys_set_shared_data_size
 .text.sys_set_shared_data_checksum
                0x0800b654       0xd0 ..\obj\module_api_sys.o
                0x0800b654                sys_set_shared_data_checksum
 .text.sys_get_shared_data_checksum
                0x0800b724       0x84 ..\obj\module_api_sys.o
                0x0800b724                sys_get_shared_data_checksum
 .text.sys_deinit_firmware
                0x0800b7a8       0x30 ..\obj\module_api_sys.o
 .text.sys_init_firmware
                0x0800b7d8       0xe8 ..\obj\module_api_sys.o
 .text.sys_reset_dimmer
                0x0800b8c0       0x28 ..\obj\module_api_sys.o
 .text.sys_get_deflt_value
                0x0800b8e8      0x17c ..\obj\module_api_sys.o
 .text.sys_get_mcuid
                0x0800ba64      0x268 ..\obj\module_api_sys.o
                0x0800ba64                sys_get_mcuid
 .text.sys_enable_msq
                0x0800bccc       0x20 ..\obj\module_api_sys.o
                0x0800bccc                sys_enable_msq
 .text.sys_enable_pm
                0x0800bcec       0x20 ..\obj\module_api_sys.o
                0x0800bcec                sys_enable_pm
 .text.sys_enable_lta
                0x0800bd0c       0x20 ..\obj\module_api_sys.o
                0x0800bd0c                sys_enable_lta
 .text.sys_is_init_busy
                0x0800bd2c       0x20 ..\obj\module_api_sys.o
                0x0800bd2c                sys_is_init_busy
 .text.sys_set_init_busy
                0x0800bd4c       0x48 ..\obj\module_api_sys.o
                0x0800bd4c                sys_set_init_busy
 .text._sys_init
                0x0800bd94      0x35c ..\obj\module_api_sys.o
 .text._sys_reinit
                0x0800c0f0       0x38 ..\obj\module_api_sys.o
 .text.sys_reinit
                0x0800c128       0x14 ..\obj\module_api_sys.o
                0x0800c128                sys_reinit
 .text.sys_init
                0x0800c13c       0x1c ..\obj\module_api_sys.o
                0x0800c13c                sys_init
 .text.sys_hardFault_save
                0x0800c158       0xe4 ..\obj\module_api_sys.o
 .text.sys_manage_hardFault
                0x0800c23c       0x3c ..\obj\module_api_sys.o
                0x0800c23c                sys_manage_hardFault
 .text.sys_authorizesleep_after_tval
                0x0800c278      0x12c ..\obj\module_api_sys.o
 .text.sys_authorizesleep_after_X_sec
                0x0800c3a4       0x48 ..\obj\module_api_sys.o
                0x0800c3a4                sys_authorizesleep_after_X_sec
 .text.sys_authorizesleep_after_X_msec
                0x0800c3ec       0x78 ..\obj\module_api_sys.o
                0x0800c3ec                sys_authorizesleep_after_X_msec
 .text.sys_authorizesleep_after_X_usec
                0x0800c464       0x74 ..\obj\module_api_sys.o
                0x0800c464                sys_authorizesleep_after_X_usec
 .text.sys_get_wake_up_reason
                0x0800c4d8       0x20 ..\obj\module_api_sys.o
                0x0800c4d8                sys_get_wake_up_reason
 .text.sys_set_wake_up_reason
                0x0800c4f8       0x4c ..\obj\module_api_sys.o
                0x0800c4f8                sys_set_wake_up_reason
 .text.sys_reset_wake_up_reason
                0x0800c544       0x38 ..\obj\module_api_sys.o
                0x0800c544                sys_reset_wake_up_reason
 .text.sys_get_info
                0x0800c57c      0x678 ..\obj\module_api_sys.o
                0x0800c57c                sys_get_info
 .text.sys_stop_mcu
                0x0800cbf4      0x20c ..\obj\module_api_sys.o
                0x0800cbf4                sys_stop_mcu
 .text.sys_force_mcu_run
                0x0800ce00       0x48 ..\obj\module_api_sys.o
                0x0800ce00                sys_force_mcu_run
 .text.sys_set_mcu_state
                0x0800ce48      0x190 ..\obj\module_api_sys.o
                0x0800ce48                sys_set_mcu_state
 .text.sys_rtc_deepSleep
                0x0800cfd8       0x5c ..\obj\module_api_sys.o
 .text.sys_rtc_wake_up_after
                0x0800d034       0x5c ..\obj\module_api_sys.o
                0x0800d034                sys_rtc_wake_up_after
 .text.sys_rtc_set_fineCorrection
                0x0800d090       0x24 ..\obj\module_api_sys.o
                0x0800d090                sys_rtc_set_fineCorrection
 .text.sys_rtc_get_corrections
                0x0800d0b4       0x1c ..\obj\module_api_sys.o
                0x0800d0b4                sys_rtc_get_corrections
 .text.sys_rtc_set_precisionFactor
                0x0800d0d0       0x20 ..\obj\module_api_sys.o
                0x0800d0d0                sys_rtc_set_precisionFactor
 .text.sys_rtc_get_precisionFactor
                0x0800d0f0       0x18 ..\obj\module_api_sys.o
                0x0800d0f0                sys_rtc_get_precisionFactor
 .text.sys_is_dac_val_busy
                0x0800d108       0x20 ..\obj\module_api_sys.o
                0x0800d108                sys_is_dac_val_busy
 .text.sys_set_dac_val_busy
                0x0800d128       0x48 ..\obj\module_api_sys.o
                0x0800d128                sys_set_dac_val_busy
 .text.sys_get_dac_val
                0x0800d170       0x44 ..\obj\module_api_sys.o
                0x0800d170                sys_get_dac_val
 .text.sys_set_dac_val
                0x0800d1b4       0x44 ..\obj\module_api_sys.o
                0x0800d1b4                sys_set_dac_val
 .text.sys_is_capatune_busy
                0x0800d1f8       0x20 ..\obj\module_api_sys.o
                0x0800d1f8                sys_is_capatune_busy
 .text.sys_set_capatune_busy
                0x0800d218       0x48 ..\obj\module_api_sys.o
                0x0800d218                sys_set_capatune_busy
 .text.sys_get_capatune_val
                0x0800d260       0x20 ..\obj\module_api_sys.o
                0x0800d260                sys_get_capatune_val
 .text.sys_set_capatune_val
                0x0800d280       0x4c ..\obj\module_api_sys.o
                0x0800d280                sys_set_capatune_val
 .text.sys_is_rxframe_cfg_busy
                0x0800d2cc       0x20 ..\obj\module_api_sys.o
                0x0800d2cc                sys_is_rxframe_cfg_busy
 .text.sys_set_rxframe_cfg_busy
                0x0800d2ec       0x48 ..\obj\module_api_sys.o
                0x0800d2ec                sys_set_rxframe_cfg_busy
 .text.sys_get_rxframe_cfg
                0x0800d334       0x20 ..\obj\module_api_sys.o
                0x0800d334                sys_get_rxframe_cfg
 .text.sys_set_rxframe_cfg
                0x0800d354       0x24 ..\obj\module_api_sys.o
                0x0800d354                sys_set_rxframe_cfg
 .text.sys_is_statusmsk_busy
                0x0800d378       0x20 ..\obj\module_api_sys.o
                0x0800d378                sys_is_statusmsk_busy
 .text.sys_set_statusmsk_busy
                0x0800d398       0x48 ..\obj\module_api_sys.o
                0x0800d398                sys_set_statusmsk_busy
 .text.sys_get_status_mask
                0x0800d3e0       0x44 ..\obj\module_api_sys.o
                0x0800d3e0                sys_get_status_mask
 .text.sys_set_status_mask
                0x0800d424       0x58 ..\obj\module_api_sys.o
                0x0800d424                sys_set_status_mask
 .text.sys_check_status
                0x0800d47c       0x44 ..\obj\module_api_sys.o
                0x0800d47c                sys_check_status
 .text.sys_reset_status
                0x0800d4c0       0x48 ..\obj\module_api_sys.o
                0x0800d4c0                sys_reset_status
 .text.sys_get_status
                0x0800d508       0x44 ..\obj\module_api_sys.o
                0x0800d508                sys_get_status
 .text.sys_set_status
                0x0800d54c       0x80 ..\obj\module_api_sys.o
                0x0800d54c                sys_set_status
 .text.sys_is_checkcache_busy
                0x0800d5cc       0x20 ..\obj\module_api_sys.o
                0x0800d5cc                sys_is_checkcache_busy
 .text.sys_set_checkcache_busy
                0x0800d5ec       0x48 ..\obj\module_api_sys.o
                0x0800d5ec                sys_set_checkcache_busy
 .text.sys_checkcache
                0x0800d634       0xfc ..\obj\module_api_sys.o
                0x0800d634                sys_checkcache
 .text.sys_get_checkcache
                0x0800d730       0x20 ..\obj\module_api_sys.o
                0x0800d730                sys_get_checkcache
 .text.sys_process
                0x0800d750       0x2c ..\obj\module_api_sys.o
                0x0800d750                sys_process
 .text.sys_led_management
                0x0800d77c      0x100 ..\obj\module_api_sys.o
                0x0800d77c                sys_led_management
 .text.sys_is_module_moving
                0x0800d87c       0x2c ..\obj\module_api_sys.o
                0x0800d87c                sys_is_module_moving
 .text.sys_update_battery_and_temperature_info
                0x0800d8a8       0x90 ..\obj\module_api_sys.o
                0x0800d8a8                sys_update_battery_and_temperature_info
 .text.sys_get_battery_level
                0x0800d938       0x64 ..\obj\module_api_sys.o
                0x0800d938                sys_get_battery_level
 .text.sys_get_temperature_level
                0x0800d99c       0x60 ..\obj\module_api_sys.o
                0x0800d99c                sys_get_temperature_level
 .text.ClearIRQReg
                0x0800d9fc       0x40 ..\obj\module_api_sys.o
 .text.sys_noise_or_treshold_test
                0x0800da3c      0x300 ..\obj\module_api_sys.o
                0x0800da3c                sys_noise_or_treshold_test
 .text.sys_test_soldering
                0x0800dd3c      0x380 ..\obj\module_api_sys.o
                0x0800dd3c                sys_test_soldering
 .text.sys_test_rfdesign
                0x0800e0bc      0x26c ..\obj\module_api_sys.o
                0x0800e0bc                sys_test_rfdesign
 .text.RTC_DeInit
                0x0800e328       0x58 ..\obj\stm32f0xx_rtc.o
                0x0800e328                RTC_DeInit
 .text.RTC_Init
                0x0800e380       0x48 ..\obj\stm32f0xx_rtc.o
                0x0800e380                RTC_Init
 .text.RTC_EnterInitMode
                0x0800e3c8       0x3c ..\obj\stm32f0xx_rtc.o
                0x0800e3c8                RTC_EnterInitMode
 .text.RTC_ExitInitMode
                0x0800e404       0x10 ..\obj\stm32f0xx_rtc.o
                0x0800e404                RTC_ExitInitMode
 .text.RTC_WaitForSynchro
                0x0800e414       0x4c ..\obj\stm32f0xx_rtc.o
                0x0800e414                RTC_WaitForSynchro
 .text.RTC_SetTime
                0x0800e460       0xb0 ..\obj\stm32f0xx_rtc.o
                0x0800e460                RTC_SetTime
 .text.RTC_GetTime
                0x0800e510       0x48 ..\obj\stm32f0xx_rtc.o
                0x0800e510                RTC_GetTime
 .text.RTC_GetSubSecond
                0x0800e558        0xc ..\obj\stm32f0xx_rtc.o
                0x0800e558                RTC_GetSubSecond
 .text.RTC_SetAlarm
                0x0800e564       0xb8 ..\obj\stm32f0xx_rtc.o
                0x0800e564                RTC_SetAlarm
 .text.RTC_AlarmStructInit
                0x0800e61c       0x14 ..\obj\stm32f0xx_rtc.o
                0x0800e61c                RTC_AlarmStructInit
 .text.RTC_AlarmCmd
                0x0800e630       0x54 ..\obj\stm32f0xx_rtc.o
                0x0800e630                RTC_AlarmCmd
 .text.RTC_AlarmSubSecondConfig
                0x0800e684       0x1c ..\obj\stm32f0xx_rtc.o
                0x0800e684                RTC_AlarmSubSecondConfig
 .text.RTC_ITConfig
                0x0800e6a0       0x44 ..\obj\stm32f0xx_rtc.o
                0x0800e6a0                RTC_ITConfig
 .text.RTC_ClearFlag
                0x0800e6e4       0x20 ..\obj\stm32f0xx_rtc.o
                0x0800e6e4                RTC_ClearFlag
 .text.RTC_GetITStatus
                0x0800e704       0x38 ..\obj\stm32f0xx_rtc.o
                0x0800e704                RTC_GetITStatus
 .text.RTC_ClearITPendingBit
                0x0800e73c       0x1c ..\obj\stm32f0xx_rtc.o
                0x0800e73c                RTC_ClearITPendingBit
 .text.RTC_ByteToBcd2
                0x0800e758       0x18 ..\obj\stm32f0xx_rtc.o
 .text.RTC_Bcd2ToByte
                0x0800e770       0x10 ..\obj\stm32f0xx_rtc.o
 .text._sbrk    0x0800e780       0x20 ..\obj\syscalls.o
                0x0800e780                _sbrk
 .text.USART_DeInit
                0x0800e7a0       0x78 ..\obj\stm32f0xx_usart.o
                0x0800e7a0                USART_DeInit
 .text.USART_Init
                0x0800e818       0xc0 ..\obj\stm32f0xx_usart.o
                0x0800e818                USART_Init
 .text.USART_Cmd
                0x0800e8d8       0x14 ..\obj\stm32f0xx_usart.o
                0x0800e8d8                USART_Cmd
 .text.USART_SendData
                0x0800e8ec        0x8 ..\obj\stm32f0xx_usart.o
                0x0800e8ec                USART_SendData
 .text.USART_ReceiveData
                0x0800e8f4        0x8 ..\obj\stm32f0xx_usart.o
                0x0800e8f4                USART_ReceiveData
 .text.USART_GetFlagStatus
                0x0800e8fc        0xc ..\obj\stm32f0xx_usart.o
                0x0800e8fc                USART_GetFlagStatus
 .text.USART_ClearFlag
                0x0800e908        0x4 ..\obj\stm32f0xx_usart.o
                0x0800e908                USART_ClearFlag
 .text.TIM_DeInit
                0x0800e90c       0xe8 ..\obj\stm32f0xx_tim.o
                0x0800e90c                TIM_DeInit
 .text.TIM_TimeBaseInit
                0x0800e9f4       0x78 ..\obj\stm32f0xx_tim.o
                0x0800e9f4                TIM_TimeBaseInit
 .text.TIM_TimeBaseStructInit
                0x0800ea6c       0x14 ..\obj\stm32f0xx_tim.o
                0x0800ea6c                TIM_TimeBaseStructInit
 .text.TIM_PrescalerConfig
                0x0800ea80        0x8 ..\obj\stm32f0xx_tim.o
                0x0800ea80                TIM_PrescalerConfig
 .text.TIM_SetCounter
                0x0800ea88        0x4 ..\obj\stm32f0xx_tim.o
                0x0800ea88                TIM_SetCounter
 .text.TIM_Cmd  0x0800ea8c       0x18 ..\obj\stm32f0xx_tim.o
                0x0800ea8c                TIM_Cmd
 .text.TIM_ICInit
                0x0800eaa4       0x5c ..\obj\stm32f0xx_tim.o
                0x0800eaa4                TIM_ICInit
 .text.TIM_GetCapture1
                0x0800eb00        0x4 ..\obj\stm32f0xx_tim.o
                0x0800eb00                TIM_GetCapture1
 .text.TIM_SetIC1Prescaler
                0x0800eb04       0x14 ..\obj\stm32f0xx_tim.o
                0x0800eb04                TIM_SetIC1Prescaler
 .text.TIM_SetIC2Prescaler
                0x0800eb18       0x1c ..\obj\stm32f0xx_tim.o
                0x0800eb18                TIM_SetIC2Prescaler
 .text.TIM_SetIC3Prescaler
                0x0800eb34       0x14 ..\obj\stm32f0xx_tim.o
                0x0800eb34                TIM_SetIC3Prescaler
 .text.TIM_SetIC4Prescaler
                0x0800eb48       0x1c ..\obj\stm32f0xx_tim.o
                0x0800eb48                TIM_SetIC4Prescaler
 .text.TIM_ITConfig
                0x0800eb64       0x14 ..\obj\stm32f0xx_tim.o
                0x0800eb64                TIM_ITConfig
 .text.TIM_GetFlagStatus
                0x0800eb78        0xc ..\obj\stm32f0xx_tim.o
                0x0800eb78                TIM_GetFlagStatus
 .text.TIM_ClearFlag
                0x0800eb84        0x8 ..\obj\stm32f0xx_tim.o
                0x0800eb84                TIM_ClearFlag
 .text.TIM_GetITStatus
                0x0800eb8c       0x18 ..\obj\stm32f0xx_tim.o
                0x0800eb8c                TIM_GetITStatus
 .text.TIM_ClearITPendingBit
                0x0800eba4        0x8 ..\obj\stm32f0xx_tim.o
                0x0800eba4                TIM_ClearITPendingBit
 .text.TIM_SelectOutputTrigger
                0x0800ebac       0x14 ..\obj\stm32f0xx_tim.o
                0x0800ebac                TIM_SelectOutputTrigger
 .text.TIM_RemapConfig
                0x0800ebc0        0x8 ..\obj\stm32f0xx_tim.o
                0x0800ebc0                TIM_RemapConfig
 .text.TI1_Config
                0x0800ebc8       0x30 ..\obj\stm32f0xx_tim.o
 .text.TI2_Config
                0x0800ebf8       0x40 ..\obj\stm32f0xx_tim.o
 .text.TI3_Config
                0x0800ec38       0x3c ..\obj\stm32f0xx_tim.o
 .text.TI4_Config
                0x0800ec74       0x44 ..\obj\stm32f0xx_tim.o
 .text.analyzeChar
                0x0800ecb8      0x260 ..\obj\shell.o
 .text.shell_interface
                0x0800ef18      0x19c ..\obj\shell.o
                0x0800ef18                shell_interface
 .text.shell_trace_line
                0x0800f0b4       0x28 ..\obj\shell.o
 .text.shell_help
                0x0800f0dc      0x200 ..\obj\shell.o
                0x0800f0dc                shell_help
 .text.shell_prompt
                0x0800f2dc       0x1c ..\obj\shell.o
                0x0800f2dc                shell_prompt
 .text.shell_process
                0x0800f2f8        0x8 ..\obj\shell.o
                0x0800f2f8                shell_process
 .text.SystemInit
                0x0800f300       0x6c ..\obj\system_stm32f0xx.o
                0x0800f300                SystemInit
 .text.SetSysClock
                0x0800f36c       0x40 ..\obj\system_stm32f0xx.o
 .text.HAL_SPI_DeInit
                0x0800f3ac       0x18 ..\obj\SPI.o
                0x0800f3ac                HAL_SPI_DeInit
 .text.HAL_SPI_Init
                0x0800f3c4        0xc ..\obj\SPI.o
                0x0800f3c4                HAL_SPI_Init
 .text.HAL_SPI1_Init_Slave
                0x0800f3d0      0x104 ..\obj\SPI.o
                0x0800f3d0                HAL_SPI1_Init_Slave
 .text.HAL_SPI2_Init
                0x0800f4d4       0xac ..\obj\SPI.o
                0x0800f4d4                HAL_SPI2_Init
 .text.HAL_SPI2_write_buffer
                0x0800f580       0x70 ..\obj\SPI.o
                0x0800f580                HAL_SPI2_write_buffer
 .text.HAL_SPI2_read_buffer
                0x0800f5f0       0x84 ..\obj\SPI.o
                0x0800f5f0                HAL_SPI2_read_buffer
 .text.HAL_SPI2_write_burst
                0x0800f674       0xbc ..\obj\SPI.o
                0x0800f674                HAL_SPI2_write_burst
 .text.HAL_SPI2_read_burst
                0x0800f730       0xe4 ..\obj\SPI.o
                0x0800f730                HAL_SPI2_read_burst
 .text.HAL_SPI2_bridge
                0x0800f814       0x84 ..\obj\SPI.o
                0x0800f814                HAL_SPI2_bridge
 .text.OSAL_div_u64_u64
                0x0800f898       0x28 ..\obj\osal_math.o
                0x0800f898                OSAL_div_u64_u64
 .text.OSAL_div_s64_s64
                0x0800f8c0       0x28 ..\obj\osal_math.o
                0x0800f8c0                OSAL_div_s64_s64
 .text.OSAL_int_sqrt64
                0x0800f8e8       0xc8 ..\obj\osal_math.o
                0x0800f8e8                OSAL_int_sqrt64
 .text.__OSAL_malloc
                0x0800f9b0       0x28 ..\obj\osal_stdlib.o
                0x0800f9b0                __OSAL_malloc
 .text.__OSAL_free
                0x0800f9d8       0x20 ..\obj\osal_stdlib.o
                0x0800f9d8                __OSAL_free
 .text.OSAL_memcpy
                0x0800f9f8       0x28 ..\obj\osal_stdlib.o
                0x0800f9f8                OSAL_memcpy
 .text.OSAL_memset
                0x0800fa20       0x28 ..\obj\osal_stdlib.o
                0x0800fa20                OSAL_memset
 .text.EXTI_DeInit
                0x0800fa48       0x20 ..\obj\stm32f0xx_exti.o
                0x0800fa48                EXTI_DeInit
 .text.EXTI_Init
                0x0800fa68       0x6c ..\obj\stm32f0xx_exti.o
                0x0800fa68                EXTI_Init
 .text.EXTI_StructInit
                0x0800fad4       0x10 ..\obj\stm32f0xx_exti.o
                0x0800fad4                EXTI_StructInit
 .text.EXTI_GetITStatus
                0x0800fae4       0x14 ..\obj\stm32f0xx_exti.o
                0x0800fae4                EXTI_GetITStatus
 .text.EXTI_ClearITPendingBit
                0x0800faf8        0xc ..\obj\stm32f0xx_exti.o
                0x0800faf8                EXTI_ClearITPendingBit
 .text.testResultToString
                0x0800fb04       0x20 ..\obj\ShellCommand_system.o
                0x0800fb04                testResultToString
 .text.test_reinit
                0x0800fb24        0xc ..\obj\ShellCommand_system.o
                0x0800fb24                test_reinit
 .text.help_fct
                0x0800fb30       0x14 ..\obj\ShellCommand_system.o
                0x0800fb30                help_fct
 .text.reset_fct
                0x0800fb44        0xc ..\obj\ShellCommand_system.o
                0x0800fb44                reset_fct
 .text.mcu_id_fct
                0x0800fb50       0x3c ..\obj\ShellCommand_system.o
                0x0800fb50                mcu_id_fct
 .text.version_fct
                0x0800fb8c       0x80 ..\obj\ShellCommand_system.o
                0x0800fb8c                version_fct
 .text.serial_fct
                0x0800fc0c       0x38 ..\obj\ShellCommand_system.o
                0x0800fc0c                serial_fct
 .text.macAddress_fct
                0x0800fc44       0x60 ..\obj\ShellCommand_system.o
                0x0800fc44                macAddress_fct
 .text.dac_fct  0x0800fca4       0x28 ..\obj\ShellCommand_system.o
                0x0800fca4                dac_fct
 .text.dac_en_fct
                0x0800fccc       0x3c ..\obj\ShellCommand_system.o
                0x0800fccc                dac_en_fct
 .text.soldering_fct
                0x0800fd08       0xc8 ..\obj\ShellCommand_system.o
                0x0800fd08                soldering_fct
 .text.io_conf_fct
                0x0800fdd0        0xc ..\obj\ShellCommand_system.o
                0x0800fdd0                io_conf_fct
 .text.temperature_fct
                0x0800fddc       0x3c ..\obj\ShellCommand_system.o
                0x0800fddc                temperature_fct
 .text.battery_fct
                0x0800fe18       0x50 ..\obj\ShellCommand_system.o
                0x0800fe18                battery_fct
 .text.spiTrace_fct
                0x0800fe68       0x20 ..\obj\ShellCommand_system.o
                0x0800fe68                spiTrace_fct
 .text.rfdesign_fct
                0x0800fe88      0x1b4 ..\obj\ShellCommand_system.o
                0x0800fe88                rfdesign_fct
 .text.lse_en_fct
                0x0801003c       0x50 ..\obj\ShellCommand_system.o
                0x0801003c                lse_en_fct
 .text.lse_drv_cfg_fct
                0x0801008c       0x64 ..\obj\ShellCommand_system.o
                0x0801008c                lse_drv_cfg_fct
 .text.rtcpres_fct
                0x080100f0       0x34 ..\obj\ShellCommand_system.o
                0x080100f0                rtcpres_fct
 .text.rtcTime_fct
                0x08010124       0x1c ..\obj\ShellCommand_system.o
                0x08010124                rtcTime_fct
 .text.rtc_fct  0x08010140       0x78 ..\obj\ShellCommand_system.o
                0x08010140                rtc_fct
 .text.rtctune_fct
                0x080101b8       0xe0 ..\obj\ShellCommand_system.o
                0x080101b8                rtctune_fct
 .text.rtcclock_fct
                0x08010298       0xcc ..\obj\ShellCommand_system.o
                0x08010298                rtcclock_fct
 .text.periph_lp_fct
                0x08010364       0x34 ..\obj\ShellCommand_system.o
                0x08010364                periph_lp_fct
 .text.io_ctrl_fct
                0x08010398       0xd8 ..\obj\ShellCommand_system.o
                0x08010398                io_ctrl_fct
 .text.io_read_fct
                0x08010470      0x10c ..\obj\ShellCommand_system.o
                0x08010470                io_read_fct
 .text.msq_en_fct
                0x0801057c       0x38 ..\obj\ShellCommand_system.o
                0x0801057c                msq_en_fct
 .text.lta_fct  0x080105b4       0x24 ..\obj\ShellCommand_system.o
                0x080105b4                lta_fct
 .text.w_fct    0x080105d8       0x40 ..\obj\ShellCommand_system.o
                0x080105d8                w_fct
 .text.r_fct    0x08010618       0x50 ..\obj\ShellCommand_system.o
                0x08010618                r_fct
 .text.thld_fct
                0x08010668       0x58 ..\obj\ShellCommand_system.o
                0x08010668                thld_fct
 .text.read_thld_fct
                0x080106c0       0x18 ..\obj\ShellCommand_system.o
                0x080106c0                read_thld_fct
 .text.thld_test_fct
                0x080106d8       0xf4 ..\obj\ShellCommand_system.o
                0x080106d8                thld_test_fct
 .text.noise_test_fct
                0x080107cc      0x110 ..\obj\ShellCommand_system.o
                0x080107cc                noise_test_fct
 .text.alloclevel_fct
                0x080108dc       0x10 ..\obj\ShellCommand_system.o
                0x080108dc                alloclevel_fct
 .text.allocate_fct
                0x080108ec       0x44 ..\obj\ShellCommand_system.o
                0x080108ec                allocate_fct
 .text.testBitfiled_fct
                0x08010930        0x4 ..\obj\ShellCommand_system.o
                0x08010930                testBitfiled_fct
 .text.shellcommand_misc_reinit
                0x08010934       0x3c ..\obj\ShellCommand_misc.o
                0x08010934                shellcommand_misc_reinit
 .text.shellcommand_misc_Process
                0x08010970       0x50 ..\obj\ShellCommand_misc.o
                0x08010970                shellcommand_misc_Process
 .text.resetVect
                0x080109c0       0x40 ..\obj\ShellCommand_misc.o
 .text.getVect0
                0x08010a00       0x48 ..\obj\ShellCommand_misc.o
 .text.rxtxrf_test_process
                0x08010a48      0x5ec ..\obj\ShellCommand_misc.o
 .text.tx_fct   0x08011034       0x34 ..\obj\ShellCommand_misc.o
                0x08011034                tx_fct
 .text.rxorrf_fct
                0x08011068       0x2c ..\obj\ShellCommand_misc.o
 .text.rx_fct   0x08011094        0xc ..\obj\ShellCommand_misc.o
                0x08011094                rx_fct
 .text.get_twOffset
                0x080110a0       0x30 ..\obj\ShellCommand_misc.o
 .text.twoWayRngDoProcess
                0x080110d0      0x37c ..\obj\ShellCommand_misc.o
 .text.twoWayRngProcess
                0x0801144c       0x30 ..\obj\ShellCommand_misc.o
                0x0801144c                twoWayRngProcess
 .text.twoWayRng
                0x0801147c      0x2c8 ..\obj\ShellCommand_misc.o
                0x0801147c                twoWayRng
 .text.rfloop_fct
                0x08011744        0xc ..\obj\ShellCommand_misc.o
                0x08011744                rfloop_fct
 .text.checkMove_fct
                0x08011750       0x24 ..\obj\ShellCommand_misc.o
                0x08011750                checkMove_fct
 .text.uwb_com_printpckt
                0x08011774       0x4c ..\obj\uwbmodule_com_specific.o
                0x08011774                uwb_com_printpckt
 .text.uwb_com_print
                0x080117c0       0x88 ..\obj\uwbmodule_com_specific.o
                0x080117c0                uwb_com_print
 .text.uwb_com_process_sys_command
                0x08011848      0x1fc ..\obj\uwbmodule_com_specific.o
 .text.uwb_com_process_radio_command
                0x08011a44      0x2b8 ..\obj\uwbmodule_com_specific.o
 .text.uwb_com_process_seq_command
                0x08011cfc       0xf0 ..\obj\uwbmodule_com_specific.o
 .text.uwb_com_process_command
                0x08011dec       0x98 ..\obj\uwbmodule_com_specific.o
                0x08011dec                uwb_com_process_command
 .text.SYSCFG_DeInit
                0x08011e84       0x24 ..\obj\stm32f0xx_syscfg.o
                0x08011e84                SYSCFG_DeInit
 .text.SYSCFG_EXTILineConfig
                0x08011ea8       0x2c ..\obj\stm32f0xx_syscfg.o
                0x08011ea8                SYSCFG_EXTILineConfig
 *fill*         0x08011ed4        0x4 
 .text.updateRealCor
                0x08011ed8       0xb0 ..\obj\RTC.o
 .text.HAL_convertTVALToUsec64Corr
                0x08011f88       0x88 ..\obj\RTC.o
 .text.roundusec_2_SYNCHPREDIV
                0x08012010       0x90 ..\obj\RTC.o
 .text.HAL_RTC_GetSysTime_usec64
                0x080120a0       0x68 ..\obj\RTC.o
 .text.HAL_RTC_DeInit
                0x08012108        0x8 ..\obj\RTC.o
                0x08012108                HAL_RTC_DeInit
 .text.HAL_RTC_Init
                0x08012110       0x64 ..\obj\RTC.o
                0x08012110                HAL_RTC_Init
 *fill*         0x08012174        0x4 
 .text.HAL_RTC_ReLaunchOrStopAlarm
                0x08012178      0x1a0 ..\obj\RTC.o
                0x08012178                HAL_RTC_ReLaunchOrStopAlarm
 .text.HAL_RTC_StartAlarm
                0x08012318       0x84 ..\obj\RTC.o
                0x08012318                HAL_RTC_StartAlarm
 .text.HAL_RTC_CancelAlarm
                0x0801239c       0x28 ..\obj\RTC.o
                0x0801239c                HAL_RTC_CancelAlarm
 *fill*         0x080123c4        0x4 
 .text.HAL_RTC_Autocalibrate
                0x080123c8       0xb8 ..\obj\RTC.o
                0x080123c8                HAL_RTC_Autocalibrate
 .text.HAL_RTC_GetTime
                0x08012480       0x30 ..\obj\RTC.o
                0x08012480                HAL_RTC_GetTime
 .text.HAL_RTC_Get_SysTime
                0x080124b0       0x48 ..\obj\RTC.o
                0x080124b0                HAL_RTC_Get_SysTime
 .text.HAL_RTC_Get_RealTime
                0x080124f8       0x48 ..\obj\RTC.o
                0x080124f8                HAL_RTC_Get_RealTime
 .text.HAL_RTC_GetFineTune
                0x08012540       0x28 ..\obj\RTC.o
                0x08012540                HAL_RTC_GetFineTune
 .text.HAL_RTC_SetFineTune
                0x08012568       0x2c ..\obj\RTC.o
                0x08012568                HAL_RTC_SetFineTune
 .text.HAL_RTC_GetPrecisionFactor
                0x08012594        0xc ..\obj\RTC.o
                0x08012594                HAL_RTC_GetPrecisionFactor
 .text.HAL_RTC_SetPrecisionFactor
                0x080125a0       0x34 ..\obj\RTC.o
                0x080125a0                HAL_RTC_SetPrecisionFactor
 .text.PWR_DeInit
                0x080125d4       0x18 ..\obj\stm32f0xx_pwr.o
                0x080125d4                PWR_DeInit
 .text.PWR_BackupAccessCmd
                0x080125ec       0x20 ..\obj\stm32f0xx_pwr.o
                0x080125ec                PWR_BackupAccessCmd
 .text.PWR_EnterSTOPMode
                0x0801260c       0x68 ..\obj\stm32f0xx_pwr.o
                0x0801260c                PWR_EnterSTOPMode
 .text.PWR_EnterSTANDBYMode
                0x08012674       0x3c ..\obj\stm32f0xx_pwr.o
                0x08012674                PWR_EnterSTANDBYMode
 .text.PWR_ClearFlag
                0x080126b0       0x10 ..\obj\stm32f0xx_pwr.o
                0x080126b0                PWR_ClearFlag
 .text.PWR_PreventFromDeepSleep
                0x080126c0       0x14 ..\obj\stm32f0xx_pwr.o
                0x080126c0                PWR_PreventFromDeepSleep
 .text.PWR_IsPreventedFromDeepSleep
                0x080126d4       0x14 ..\obj\stm32f0xx_pwr.o
                0x080126d4                PWR_IsPreventedFromDeepSleep
 .text.HAL_USART1_Init
                0x080126e8       0x4c ..\obj\USART.o
                0x080126e8                HAL_USART1_Init
 .text.HAL_USART2_Init
                0x08012734       0x4c ..\obj\USART.o
                0x08012734                HAL_USART2_Init
 .text.HAL_USART_GetChar
                0x08012780       0x94 ..\obj\USART.o
                0x08012780                HAL_USART_GetChar
 .text.HAL_USART_DeInit
                0x08012814       0x2c ..\obj\USART.o
                0x08012814                HAL_USART_DeInit
 .text.HAL_USART_Init
                0x08012840       0x20 ..\obj\USART.o
                0x08012840                HAL_USART_Init
 .text.ERR      0x08012860       0x38 ..\obj\osal_trace_STM32.o
                0x08012860                ERR
 .text.VERR     0x08012898       0x48 ..\obj\osal_trace_STM32.o
                0x08012898                VERR
 .text.WARNING  0x080128e0       0x38 ..\obj\osal_trace_STM32.o
                0x080128e0                WARNING
 .text.VWARNING
                0x08012918       0x48 ..\obj\osal_trace_STM32.o
                0x08012918                VWARNING
 .text.INFO     0x08012960       0x38 ..\obj\osal_trace_STM32.o
                0x08012960                INFO
 .text.VINFO    0x08012998       0x48 ..\obj\osal_trace_STM32.o
                0x08012998                VINFO
 .text.DBG      0x080129e0       0x38 ..\obj\osal_trace_STM32.o
                0x080129e0                DBG
 .text.VDBG     0x08012a18       0x48 ..\obj\osal_trace_STM32.o
                0x08012a18                VDBG
 .text.VVERB    0x08012a60       0x48 ..\obj\osal_trace_STM32.o
                0x08012a60                VVERB
 .text.ANY      0x08012aa8       0x38 ..\obj\osal_trace_STM32.o
                0x08012aa8                ANY
 .text.VANY     0x08012ae0       0x48 ..\obj\osal_trace_STM32.o
                0x08012ae0                VANY
 .text.NVIC_Init
                0x08012b28       0x60 ..\obj\stm32f0xx_misc.o
                0x08012b28                NVIC_Init
 .text.DAC_DeInit
                0x08012b88       0x18 ..\obj\stm32f0xx_dac.o
                0x08012b88                DAC_DeInit
 .text.DAC_Init
                0x08012ba0       0x30 ..\obj\stm32f0xx_dac.o
                0x08012ba0                DAC_Init
 .text.DAC_StructInit
                0x08012bd0        0xc ..\obj\stm32f0xx_dac.o
                0x08012bd0                DAC_StructInit
 .text.DAC_Cmd  0x08012bdc       0x28 ..\obj\stm32f0xx_dac.o
                0x08012bdc                DAC_Cmd
 .text.DAC_SetChannel2Data
                0x08012c04       0x20 ..\obj\stm32f0xx_dac.o
                0x08012c04                DAC_SetChannel2Data
 .text.OSAL_gettimeofday
                0x08012c24       0x1c ..\obj\osal_time.o
                0x08012c24                OSAL_gettimeofday
 .text.OSAL_timercmp
                0x08012c40       0xa8 ..\obj\osal_time.o
                0x08012c40                OSAL_timercmp
 .text.OSAL_timersub
                0x08012ce8       0x50 ..\obj\osal_time.o
                0x08012ce8                OSAL_timersub
 .text.OSAL_timersub_realtime
                0x08012d38       0x6c ..\obj\osal_time.o
                0x08012d38                OSAL_timersub_realtime
 .text.OSAL_timeradd
                0x08012da4       0x58 ..\obj\osal_time.o
                0x08012da4                OSAL_timeradd
 .text.OSAL_get_realtime
                0x08012dfc       0x18 ..\obj\osal_time.o
                0x08012dfc                OSAL_get_realtime
 .text.OSAL_get_systemtime
                0x08012e14       0x18 ..\obj\osal_time.o
                0x08012e14                OSAL_get_systemtime
 .text.filter_get_alloc_Size
                0x08012e2c       0x40 ..\..\..\..\LTA_LIB\libbespoon_LTA_official.a(afc_filter.o)
                0x08012e2c                filter_get_alloc_Size
 .text.filter_set_init_values
                0x08012e6c       0x6c ..\..\..\..\LTA_LIB\libbespoon_LTA_official.a(afc_filter.o)
                0x08012e6c                filter_set_init_values
 .text.filter_init
                0x08012ed8       0x6c ..\..\..\..\LTA_LIB\libbespoon_LTA_official.a(afc_filter.o)
                0x08012ed8                filter_init
 *fill*         0x08012f44        0x4 
 .text.filter_create_inPool
                0x08012f48      0x1f0 ..\..\..\..\LTA_LIB\libbespoon_LTA_official.a(afc_filter.o)
                0x08012f48                filter_create_inPool
 .text.filter_add
                0x08013138      0x124 ..\..\..\..\LTA_LIB\libbespoon_LTA_official.a(afc_filter.o)
                0x08013138                filter_add
 .text.filter_get_value
                0x0801325c       0x70 ..\..\..\..\LTA_LIB\libbespoon_LTA_official.a(afc_filter.o)
                0x0801325c                filter_get_value
 .text.filter_set_R_coeff
                0x080132cc       0x30 ..\..\..\..\LTA_LIB\libbespoon_LTA_official.a(afc_filter.o)
                0x080132cc                filter_set_R_coeff
 .text.filter_set_x_init
                0x080132fc       0x2c ..\..\..\..\LTA_LIB\libbespoon_LTA_official.a(afc_filter.o)
                0x080132fc                filter_set_x_init
 .text.lta_pow  0x08013328       0x54 ..\..\..\..\LTA_LIB\libbespoon_LTA_official.a(live_threshold_adjustment.o)
                0x08013328                lta_pow
 .text.lta_do_compute_root_threshold_from_temperature
                0x0801337c       0x58 ..\..\..\..\LTA_LIB\libbespoon_LTA_official.a(live_threshold_adjustment.o)
                0x0801337c                lta_do_compute_root_threshold_from_temperature
 .text.lta_set_temp_gain_off_for_root_threshold
                0x080133d4       0x4c ..\..\..\..\LTA_LIB\libbespoon_LTA_official.a(live_threshold_adjustment.o)
                0x080133d4                lta_set_temp_gain_off_for_root_threshold
 .text.lta_append_thld_filter_value
                0x08013420       0x30 ..\..\..\..\LTA_LIB\libbespoon_LTA_official.a(live_threshold_adjustment.o)
                0x08013420                lta_append_thld_filter_value
 .text.lta_compute_root_threshold_from_temperature
                0x08013450       0x20 ..\..\..\..\LTA_LIB\libbespoon_LTA_official.a(live_threshold_adjustment.o)
                0x08013450                lta_compute_root_threshold_from_temperature
 .text.lta_compute_threshold_from_IR
                0x08013470      0x100 ..\..\..\..\LTA_LIB\libbespoon_LTA_official.a(live_threshold_adjustment.o)
                0x08013470                lta_compute_threshold_from_IR
 .text.lta_do_compute_root_threshold_from_IR
                0x08013570       0x40 ..\..\..\..\LTA_LIB\libbespoon_LTA_official.a(live_threshold_adjustment.o)
                0x08013570                lta_do_compute_root_threshold_from_IR
 .text.lta_compute_root_threshold_from_IR
                0x080135b0       0x50 ..\..\..\..\LTA_LIB\libbespoon_LTA_official.a(live_threshold_adjustment.o)
                0x080135b0                lta_compute_root_threshold_from_IR
 .text.lta_get_live_root_threshold
                0x08013600        0xc ..\..\..\..\LTA_LIB\libbespoon_LTA_official.a(live_threshold_adjustment.o)
                0x08013600                lta_get_live_root_threshold
 *fill*         0x0801360c        0x4 
 .text.lta_init
                0x08013610       0x98 ..\..\..\..\LTA_LIB\libbespoon_LTA_official.a(live_threshold_adjustment.o)
                0x08013610                lta_init
 .text.lta_init_filter_from_temperature
                0x080136a8       0x34 ..\..\..\..\LTA_LIB\libbespoon_LTA_official.a(live_threshold_adjustment.o)
                0x080136a8                lta_init_filter_from_temperature
 *fill*         0x080136dc        0x4 
 .text.lta_reset_filter
                0x080136e0       0x80 ..\..\..\..\LTA_LIB\libbespoon_LTA_official.a(live_threshold_adjustment.o)
                0x080136e0                lta_reset_filter
 .text.lta_set_params
                0x08013760       0x4c ..\..\..\..\LTA_LIB\libbespoon_LTA_official.a(live_threshold_adjustment.o)
                0x08013760                lta_set_params
 .text.__alignedSizeof
                0x080137ac       0x18 ..\..\..\..\LTA_LIB\libbespoon_LTA_official.a(memPool.o)
                0x080137ac                __alignedSizeof
 .text.init_MemPool
                0x080137c4       0x3c ..\..\..\..\LTA_LIB\libbespoon_LTA_official.a(memPool.o)
                0x080137c4                init_MemPool
 .text.release_MemPool
                0x08013800       0x24 ..\..\..\..\LTA_LIB\libbespoon_LTA_official.a(memPool.o)
                0x08013800                release_MemPool
 .text.__allocate_in_MemPool
                0x08013824       0x28 ..\..\..\..\LTA_LIB\libbespoon_LTA_official.a(memPool.o)
                0x08013824                __allocate_in_MemPool
 *fill*         0x0801384c        0x4 
 .text.log10f   0x08013850       0xf0 c:/program files (x86)/gnu tools arm embedded/4.8 2013q4/bin/../lib/gcc/arm-none-eabi/4.8.3/../../../../arm-none-eabi/lib/armv6-m\libm.a(lib_a-wf_log10.o)
                0x08013850                log10f
 .text.__ieee754_log10f
                0x08013940       0xb4 c:/program files (x86)/gnu tools arm embedded/4.8 2013q4/bin/../lib/gcc/arm-none-eabi/4.8.3/../../../../arm-none-eabi/lib/armv6-m\libm.a(lib_a-ef_log10.o)
                0x08013940                __ieee754_log10f
 .text.matherr  0x080139f4        0x4 c:/program files (x86)/gnu tools arm embedded/4.8 2013q4/bin/../lib/gcc/arm-none-eabi/4.8.3/../../../../arm-none-eabi/lib/armv6-m\libm.a(lib_a-s_matherr.o)
                0x080139f4                matherr
 .text.nan      0x080139f8       0x10 c:/program files (x86)/gnu tools arm embedded/4.8 2013q4/bin/../lib/gcc/arm-none-eabi/4.8.3/../../../../arm-none-eabi/lib/armv6-m\libm.a(lib_a-s_nan.o)
                0x080139f8                nan
 .text.__fpclassifyf
                0x08013a08       0x3c c:/program files (x86)/gnu tools arm embedded/4.8 2013q4/bin/../lib/gcc/arm-none-eabi/4.8.3/../../../../arm-none-eabi/lib/armv6-m\libm.a(lib_a-sf_fpclassify.o)
                0x08013a08                __fpclassifyf
 .text.__ieee754_logf
                0x08013a44      0x2bc c:/program files (x86)/gnu tools arm embedded/4.8 2013q4/bin/../lib/gcc/arm-none-eabi/4.8.3/../../../../arm-none-eabi/lib/armv6-m\libm.a(lib_a-ef_log.o)
                0x08013a44                __ieee754_logf
 .text          0x08013d00       0x14 c:/program files (x86)/gnu tools arm embedded/4.8 2013q4/bin/../lib/gcc/arm-none-eabi/4.8.3/armv6-m\libgcc.a(_thumb1_case_uqi.o)
                0x08013d00                __gnu_thumb1_case_uqi
 .text          0x08013d14       0x9c c:/program files (x86)/gnu tools arm embedded/4.8 2013q4/bin/../lib/gcc/arm-none-eabi/4.8.3/armv6-m\libgcc.a(_udivsi3.o)
                0x08013d14                __aeabi_uidiv
                0x08013d14                __udivsi3
                0x08013d9c                __aeabi_uidivmod
 .text          0x08013db0       0xc0 c:/program files (x86)/gnu tools arm embedded/4.8 2013q4/bin/../lib/gcc/arm-none-eabi/4.8.3/armv6-m\libgcc.a(_divsi3.o)
                0x08013db0                __divsi3
                0x08013db0                __aeabi_idiv
                0x08013e5c                __aeabi_idivmod
 .text          0x08013e70        0x4 c:/program files (x86)/gnu tools arm embedded/4.8 2013q4/bin/../lib/gcc/arm-none-eabi/4.8.3/armv6-m\libgcc.a(_dvmd_tls.o)
                0x08013e70                __aeabi_idiv0
                0x08013e70                __aeabi_ldiv0
 .text          0x08013e74       0x18 c:/program files (x86)/gnu tools arm embedded/4.8 2013q4/bin/../lib/gcc/arm-none-eabi/4.8.3/armv6-m\libgcc.a(_lshrdi3.o)
                0x08013e74                __lshrdi3
                0x08013e74                __aeabi_llsr
 .text          0x08013e8c       0x18 c:/program files (x86)/gnu tools arm embedded/4.8 2013q4/bin/../lib/gcc/arm-none-eabi/4.8.3/armv6-m\libgcc.a(_ashldi3.o)
                0x08013e8c                __aeabi_llsl
                0x08013e8c                __ashldi3
 .text          0x08013ea4       0x74 c:/program files (x86)/gnu tools arm embedded/4.8 2013q4/bin/../lib/gcc/arm-none-eabi/4.8.3/armv6-m\libgcc.a(_arm_cmpsf2.o)
                0x08013ea4                __aeabi_cfrcmple
                0x08013eac                __aeabi_cfcmpeq
                0x08013eac                __aeabi_cfcmple
                0x08013ebc                __aeabi_fcmpeq
                0x08013ec8                __aeabi_fcmplt
                0x08013edc                __aeabi_fcmple
                0x08013ef0                __aeabi_fcmpgt
                0x08013f04                __aeabi_fcmpge
 .text          0x08013f18       0x48 c:/program files (x86)/gnu tools arm embedded/4.8 2013q4/bin/../lib/gcc/arm-none-eabi/4.8.3/armv6-m\libgcc.a(_aeabi_ldivmod.o)
                0x08013f18                __aeabi_ldivmod
 .text          0x08013f60       0x40 c:/program files (x86)/gnu tools arm embedded/4.8 2013q4/bin/../lib/gcc/arm-none-eabi/4.8.3/armv6-m\libgcc.a(_aeabi_uldivmod.o)
                0x08013f60                __aeabi_uldivmod
 .text          0x08013fa0       0x44 c:/program files (x86)/gnu tools arm embedded/4.8 2013q4/bin/../lib/gcc/arm-none-eabi/4.8.3/armv6-m\libgcc.a(_muldi3.o)
                0x08013fa0                __muldi3
                0x08013fa0                __aeabi_lmul
 .text          0x08013fe4       0x30 c:/program files (x86)/gnu tools arm embedded/4.8 2013q4/bin/../lib/gcc/arm-none-eabi/4.8.3/armv6-m\libgcc.a(_fixunssfsi.o)
                0x08013fe4                __fixunssfsi
                0x08013fe4                __aeabi_f2uiz
 .text          0x08014014       0x6c c:/program files (x86)/gnu tools arm embedded/4.8 2013q4/bin/../lib/gcc/arm-none-eabi/4.8.3/armv6-m\libgcc.a(bpabi.o)
                0x08014014                __gnu_ldivmod_helper
                0x0801404c                __gnu_uldivmod_helper
 .text          0x08014080      0x2d8 c:/program files (x86)/gnu tools arm embedded/4.8 2013q4/bin/../lib/gcc/arm-none-eabi/4.8.3/armv6-m\libgcc.a(addsf3.o)
                0x08014080                __aeabi_fadd
 .text          0x08014358      0x24c c:/program files (x86)/gnu tools arm embedded/4.8 2013q4/bin/../lib/gcc/arm-none-eabi/4.8.3/armv6-m\libgcc.a(divsf3.o)
                0x08014358                __aeabi_fdiv
 .text          0x080145a4       0x50 c:/program files (x86)/gnu tools arm embedded/4.8 2013q4/bin/../lib/gcc/arm-none-eabi/4.8.3/armv6-m\libgcc.a(eqsf2.o)
                0x080145a4                __eqsf2
                0x080145a4                __nesf2
 .text          0x080145f4       0x90 c:/program files (x86)/gnu tools arm embedded/4.8 2013q4/bin/../lib/gcc/arm-none-eabi/4.8.3/armv6-m\libgcc.a(gesf2.o)
                0x080145f4                __gesf2
                0x080145f4                __gtsf2
 .text          0x08014684       0x90 c:/program files (x86)/gnu tools arm embedded/4.8 2013q4/bin/../lib/gcc/arm-none-eabi/4.8.3/armv6-m\libgcc.a(lesf2.o)
                0x08014684                __ltsf2
                0x08014684                __lesf2
 .text          0x08014714      0x258 c:/program files (x86)/gnu tools arm embedded/4.8 2013q4/bin/../lib/gcc/arm-none-eabi/4.8.3/armv6-m\libgcc.a(mulsf3.o)
                0x08014714                __aeabi_fmul
 .text          0x0801496c      0x2ec c:/program files (x86)/gnu tools arm embedded/4.8 2013q4/bin/../lib/gcc/arm-none-eabi/4.8.3/armv6-m\libgcc.a(subsf3.o)
                0x0801496c                __aeabi_fsub
 .text          0x08014c58       0x40 c:/program files (x86)/gnu tools arm embedded/4.8 2013q4/bin/../lib/gcc/arm-none-eabi/4.8.3/armv6-m\libgcc.a(fixsfsi.o)
                0x08014c58                __aeabi_f2iz
 .text          0x08014c98       0xb8 c:/program files (x86)/gnu tools arm embedded/4.8 2013q4/bin/../lib/gcc/arm-none-eabi/4.8.3/armv6-m\libgcc.a(floatsisf.o)
                0x08014c98                __aeabi_i2f
 .text          0x08014d50       0xa0 c:/program files (x86)/gnu tools arm embedded/4.8 2013q4/bin/../lib/gcc/arm-none-eabi/4.8.3/armv6-m\libgcc.a(floatunsisf.o)
                0x08014d50                __aeabi_ui2f
 .text          0x08014df0       0xa4 c:/program files (x86)/gnu tools arm embedded/4.8 2013q4/bin/../lib/gcc/arm-none-eabi/4.8.3/armv6-m\libgcc.a(extendsfdf2.o)
                0x08014df0                __aeabi_f2d
 .text          0x08014e94      0x118 c:/program files (x86)/gnu tools arm embedded/4.8 2013q4/bin/../lib/gcc/arm-none-eabi/4.8.3/armv6-m\libgcc.a(truncdfsf2.o)
                0x08014e94                __aeabi_d2f
 .text          0x08014fac       0x3c c:/program files (x86)/gnu tools arm embedded/4.8 2013q4/bin/../lib/gcc/arm-none-eabi/4.8.3/armv6-m\libgcc.a(_clzsi2.o)
                0x08014fac                __clzsi2
 .text          0x08014fe8      0x3b0 c:/program files (x86)/gnu tools arm embedded/4.8 2013q4/bin/../lib/gcc/arm-none-eabi/4.8.3/armv6-m\libgcc.a(_divdi3.o)
                0x08014fe8                __divdi3
 .text          0x08015398      0x380 c:/program files (x86)/gnu tools arm embedded/4.8 2013q4/bin/../lib/gcc/arm-none-eabi/4.8.3/armv6-m\libgcc.a(_udivdi3.o)
                0x08015398                __udivdi3
 .text.atoi     0x08015718        0xc c:/program files (x86)/gnu tools arm embedded/4.8 2013q4/bin/../lib/gcc/arm-none-eabi/4.8.3/../../../../arm-none-eabi/lib/armv6-m\libg.a(lib_a-atoi.o)
                0x08015718                atoi
 .text.__errno  0x08015724        0xc c:/program files (x86)/gnu tools arm embedded/4.8 2013q4/bin/../lib/gcc/arm-none-eabi/4.8.3/../../../../arm-none-eabi/lib/armv6-m\libg.a(lib_a-errno.o)
                0x08015724                __errno
 .text.malloc   0x08015730       0x14 c:/program files (x86)/gnu tools arm embedded/4.8 2013q4/bin/../lib/gcc/arm-none-eabi/4.8.3/../../../../arm-none-eabi/lib/armv6-m\libg.a(lib_a-malloc.o)
                0x08015730                malloc
 .text.free     0x08015744       0x14 c:/program files (x86)/gnu tools arm embedded/4.8 2013q4/bin/../lib/gcc/arm-none-eabi/4.8.3/../../../../arm-none-eabi/lib/armv6-m\libg.a(lib_a-malloc.o)
                0x08015744                free
 .text._malloc_r
                0x08015758      0x50c c:/program files (x86)/gnu tools arm embedded/4.8 2013q4/bin/../lib/gcc/arm-none-eabi/4.8.3/../../../../arm-none-eabi/lib/armv6-m\libg.a(lib_a-mallocr.o)
                0x08015758                _malloc_r
 .text.memcpy   0x08015c64       0x84 c:/program files (x86)/gnu tools arm embedded/4.8 2013q4/bin/../lib/gcc/arm-none-eabi/4.8.3/../../../../arm-none-eabi/lib/armv6-m\libg.a(lib_a-memcpy-stub.o)
                0x08015c64                memcpy
 .text.memset   0x08015ce8       0xbc c:/program files (x86)/gnu tools arm embedded/4.8 2013q4/bin/../lib/gcc/arm-none-eabi/4.8.3/../../../../arm-none-eabi/lib/armv6-m\libg.a(lib_a-memset.o)
                0x08015ce8                memset
 .text.__malloc_lock
                0x08015da4        0x4 c:/program files (x86)/gnu tools arm embedded/4.8 2013q4/bin/../lib/gcc/arm-none-eabi/4.8.3/../../../../arm-none-eabi/lib/armv6-m\libg.a(lib_a-mlock.o)
                0x08015da4                __malloc_lock
 .text.__malloc_unlock
                0x08015da8        0x4 c:/program files (x86)/gnu tools arm embedded/4.8 2013q4/bin/../lib/gcc/arm-none-eabi/4.8.3/../../../../arm-none-eabi/lib/armv6-m\libg.a(lib_a-mlock.o)
                0x08015da8                __malloc_unlock
 .text._sbrk_r  0x08015dac       0x24 c:/program files (x86)/gnu tools arm embedded/4.8 2013q4/bin/../lib/gcc/arm-none-eabi/4.8.3/../../../../arm-none-eabi/lib/armv6-m\libg.a(lib_a-sbrkr.o)
                0x08015dac                _sbrk_r
 .text.strchr   0x08015dd0       0xd8 c:/program files (x86)/gnu tools arm embedded/4.8 2013q4/bin/../lib/gcc/arm-none-eabi/4.8.3/../../../../arm-none-eabi/lib/armv6-m\libg.a(lib_a-strchr.o)
                0x08015dd0                strchr
 .text          0x08015ea8       0x14 c:/program files (x86)/gnu tools arm embedded/4.8 2013q4/bin/../lib/gcc/arm-none-eabi/4.8.3/../../../../arm-none-eabi/lib/armv6-m\libg.a(lib_a-strcmp.o)
                0x08015ea8                strcmp
 .text.strlen   0x08015ebc       0x10 c:/program files (x86)/gnu tools arm embedded/4.8 2013q4/bin/../lib/gcc/arm-none-eabi/4.8.3/../../../../arm-none-eabi/lib/armv6-m\libg.a(lib_a-strlen.o)
                0x08015ebc                strlen
 .text.strncmp  0x08015ecc       0xb8 c:/program files (x86)/gnu tools arm embedded/4.8 2013q4/bin/../lib/gcc/arm-none-eabi/4.8.3/../../../../arm-none-eabi/lib/armv6-m\libg.a(lib_a-strncmp.o)
                0x08015ecc                strncmp
 .text.strncpy  0x08015f84       0x74 c:/program files (x86)/gnu tools arm embedded/4.8 2013q4/bin/../lib/gcc/arm-none-eabi/4.8.3/../../../../arm-none-eabi/lib/armv6-m\libg.a(lib_a-strncpy.o)
                0x08015f84                strncpy
 .text._strtol_r
                0x08015ff8      0x164 c:/program files (x86)/gnu tools arm embedded/4.8 2013q4/bin/../lib/gcc/arm-none-eabi/4.8.3/../../../../arm-none-eabi/lib/armv6-m\libg.a(lib_a-strtol.o)
                0x08015ff8                _strtol_r
 .text.strtol   0x0801615c       0x1c c:/program files (x86)/gnu tools arm embedded/4.8 2013q4/bin/../lib/gcc/arm-none-eabi/4.8.3/../../../../arm-none-eabi/lib/armv6-m\libg.a(lib_a-strtol.o)
                0x0801615c                strtol
 .text._strtoul_r
                0x08016178      0x168 c:/program files (x86)/gnu tools arm embedded/4.8 2013q4/bin/../lib/gcc/arm-none-eabi/4.8.3/../../../../arm-none-eabi/lib/armv6-m\libg.a(lib_a-strtoul.o)
                0x08016178                _strtoul_r
 .text.strtoul  0x080162e0       0x1c c:/program files (x86)/gnu tools arm embedded/4.8 2013q4/bin/../lib/gcc/arm-none-eabi/4.8.3/../../../../arm-none-eabi/lib/armv6-m\libg.a(lib_a-strtoul.o)
                0x080162e0                strtoul
 .text._malloc_trim_r
                0x080162fc       0xa0 c:/program files (x86)/gnu tools arm embedded/4.8 2013q4/bin/../lib/gcc/arm-none-eabi/4.8.3/../../../../arm-none-eabi/lib/armv6-m\libg.a(lib_a-freer.o)
                0x080162fc                _malloc_trim_r
 .text._free_r  0x0801639c      0x190 c:/program files (x86)/gnu tools arm embedded/4.8 2013q4/bin/../lib/gcc/arm-none-eabi/4.8.3/../../../../arm-none-eabi/lib/armv6-m\libg.a(lib_a-freer.o)
                0x0801639c                _free_r
 *(.init)
 *(.fini)
 *crtbegin.o(.ctors)
 *crtbegin?.o(.ctors)
 *(EXCLUDE_FILE(*crtend.o *crtend?.o) .ctors)
 *(SORT(.ctors.*))
 *(.ctors)
 *crtbegin.o(.dtors)
 *crtbegin?.o(.dtors)
 *(EXCLUDE_FILE(*crtend.o *crtend?.o) .dtors)
 *(SORT(.dtors.*))
 *(.dtors)
 *(.rodata*)
 .rodata        0x0801652c       0x50 ..\obj\pinpointer_hw.o
 .rodata        0x0801657c       0x3c ..\obj\pp_conf_common.o
 .rodata        0x080165b8       0xc0 ..\obj\main.o
 .rodata        0x08016678      0xf58 ..\obj\pinpointer_config.o
                0x08016678                PM3toPM2Setting
                0x08016708                PM3toPM2Setting_MSQ
                0x08016714                PM3toPM2
                0x08016730                PM2toPM0Setting
                0x08016844                PM2toPM0Setting_MSQ
                0x08016880                PM2toPM0
                0x0801689c                PM0toSTDBYSetting
                0x080169a4                PM0toSTDBYSetting_MSQ
                0x080169f8                PM0toSTDBY
                0x08016a14                STDBYtoTXIDLESetting
                0x08016a74                STDBYtoTXIDLESetting_MSQ
                0x08016a8c                STDBYtoTXIDLE
                0x08016aa8                STDBYtoRXIDLESetting
                0x08016bbc                STDBYtoRXIDLESetting_MSQ
                0x08016bd4                STDBYtoRXIDLE
                0x08016bf0                STDBYtoTXRXIDLESetting
                0x08016d28                STDBYtoTXRXIDLESetting_MSQ
                0x08016d40                STDBYtoTXRXIDLE
                0x08016d5c                TXRXIDLEtoSTDBYSetting
                0x08016e64                TXRXIDLEtoSTDBYSetting_MSQ
                0x08016e7c                TXRXIDLEtoSTDBY
                0x08016e98                RXIDLEtoSTDBYSetting
                0x08016f7c                RXIDLEtoSTDBYSetting_MSQ
                0x08016f94                RXIDLEtoSTDBY
                0x08016fb0                TXIDLEtoSTDBYSetting
                0x08016ff8                TXIDLEtoSTDBYSetting_MSQ
                0x08017010                TXIDLEtoSTDBY
                0x0801702c                STDBYtoPM0Setting
                0x080170c8                STDBYtoPM0Setting_MSQ
                0x080170f8                STDBYtoPM0
                0x08017114                PM0toPM2Setting
                0x08017210                PM0toPM2Setting_MSQ
                0x08017240                PM0toPM2
                0x0801725c                PM2toPM3Setting
                0x08017298                PM2toPM3Setting_MSQ
                0x080172a4                PM2toPM3
                0x080172c0                init_setting_tab
                0x08017350                exit_setting_tab
 .rodata        0x080175d0       0x34 ..\obj\ShellCommand_radio.o
                0x080175d0                PowerStateString
 .rodata.str1.1
                0x08017604       0x21 ..\obj\ShellCommand_radio.o
 *fill*         0x08017625        0x3 
 .rodata        0x08017628       0x48 ..\obj\module_api_seq.o
 .rodata.str1.1
                0x08017670       0x5d ..\obj\GPIO.o
                                 0x61 (size before relaxing)
 *fill*         0x080176cd        0x3 
 .rodata        0x080176d0       0x78 ..\obj\Ext_Com.o
 .rodata        0x08017748      0x3bc ..\obj\module_api_radio.o
 .rodata        0x08017b04      0x17c ..\obj\msq_config.o
 .rodata        0x08017c80       0xdc ..\obj\uwbmodule_com_common.o
 .rodata        0x08017d5c      0x22c ..\obj\module_api_sys.o
 .rodata.str1.1
                0x08017f88       0x78 ..\obj\module_api_sys.o
                                 0x7e (size before relaxing)
 .rodata        0x08018000      0x8bc ..\obj\shell.o
                0x08018114                cmd_array_system
                0x08018484                cmd_array_system_full
                0x08018674                cmd_array_radio
                0x080186d0                cmd_array_radio_full
                0x08018828                cmd_array_misc
                0x080188a4                cmd_array_misc_full
 .rodata.str1.1
                0x080188bc       0x92 ..\obj\shell.o
                                 0xa0 (size before relaxing)
 .rodata.str1.1
                0x0801894e      0x322 ..\obj\ShellCommand_system.o
                                0x335 (size before relaxing)
 .rodata.str1.1
                0x08018c70      0x308 ..\obj\ShellCommand_misc.o
                                0x310 (size before relaxing)
 .rodata        0x08018f78        0x8 ..\obj\ShellCommand_misc.o
 .rodata        0x08018f80       0xdc ..\obj\uwbmodule_com_specific.o
 .rodata        0x0801905c       0x34 ..\obj\osal_trace_STM32.o
 .rodata.str1.4
                0x08019090       0x6b ..\..\..\..\LTA_LIB\libbespoon_LTA_official.a(afc_filter.o)
                                 0x6c (size before relaxing)
 *fill*         0x080190fb        0x1 
 .rodata.str1.4
                0x080190fc       0x4e ..\..\..\..\LTA_LIB\libbespoon_LTA_official.a(live_threshold_adjustment.o)
                                 0x50 (size before relaxing)
 *fill*         0x0801914a        0x2 
 .rodata.str1.4
                0x0801914c        0x7 c:/program files (x86)/gnu tools arm embedded/4.8 2013q4/bin/../lib/gcc/arm-none-eabi/4.8.3/../../../../arm-none-eabi/lib/armv6-m\libm.a(lib_a-wf_log10.o)
                                  0xc (size before relaxing)
 *fill*         0x08019153        0x1 
 .rodata        0x08019154       0x40 c:/program files (x86)/gnu tools arm embedded/4.8 2013q4/bin/../lib/gcc/arm-none-eabi/4.8.3/armv6-m\libgcc.a(divsf3.o)
 .rodata        0x08019194       0x40 c:/program files (x86)/gnu tools arm embedded/4.8 2013q4/bin/../lib/gcc/arm-none-eabi/4.8.3/armv6-m\libgcc.a(mulsf3.o)
 .rodata._ctype_
                0x080191d4      0x104 c:/program files (x86)/gnu tools arm embedded/4.8 2013q4/bin/../lib/gcc/arm-none-eabi/4.8.3/../../../../arm-none-eabi/lib/armv6-m\libg.a(lib_a-ctype_.o)
                0x080191d4                _ctype_
 .rodata.str1.4
                0x080192d8        0x4 c:/program files (x86)/gnu tools arm embedded/4.8 2013q4/bin/../lib/gcc/arm-none-eabi/4.8.3/../../../../arm-none-eabi/lib/armv6-m\libg.a(lib_a-impure.o)
 *(.eh_fram e*)

.glue_7         0x080192dc        0x0
 .glue_7        0x00000000        0x0 linker stubs

.glue_7t        0x080192dc        0x0
 .glue_7t       0x00000000        0x0 linker stubs

.vfp11_veneer   0x080192dc        0x0
 .vfp11_veneer  0x00000000        0x0 linker stubs

.v4_bx          0x080192dc        0x0
 .v4_bx         0x00000000        0x0 linker stubs

.iplt           0x080192dc        0x0
 .iplt          0x00000000        0x0 ..\obj\stm32f0xx_crc.o

.ARM.extab
 *(.ARM.extab* .gnu.linkonce.armextab.*)
                0x080192dc                __exidx_start = .

.ARM.exidx      0x080192dc        0x8
 *(.ARM.exidx* .gnu.linkonce.armexidx.*)
 .ARM.exidx     0x080192dc        0x8 c:/program files (x86)/gnu tools arm embedded/4.8 2013q4/bin/../lib/gcc/arm-none-eabi/4.8.3/armv6-m\libgcc.a(_divdi3.o)
 .ARM.exidx     0x080192e4        0x0 c:/program files (x86)/gnu tools arm embedded/4.8 2013q4/bin/../lib/gcc/arm-none-eabi/4.8.3/armv6-m\libgcc.a(_udivdi3.o)
                                  0x8 (size before relaxing)
                0x080192e4                __exidx_end = .
                0x080192e4                __etext = .
                0x080192e4                _sidata = __etext

.rel.dyn        0x080192e4        0x0
 .rel.iplt      0x00000000        0x0 ..\obj\stm32f0xx_crc.o

.data           0x20000000      0x99c load address 0x080192e4
                0x20000000                __data_start__ = .
                0x20000000                _sdata = __data_start__
 *(vtable)
 *(.data*)
 .data          0x20000000       0x10 ..\obj\stm32f0xx_rcc.o
 .data          0x20000010       0xc4 ..\obj\pinpointer_config.o
 .data          0x200000d4       0x10 ..\obj\Ext_Com.o
                0x200000d4                EXTCOM_BUF_TxLen
                0x200000d8                EXTCOM_BUF_RxLen
                0x200000dc                EXTCOM_BUF_TxFrame
                0x200000e0                EXTCOM_BUF_RxFrame
 .data          0x200000e4        0x8 ..\obj\module_api_sys.o
                0x200000e4                default_MSQ_ENABLE
                0x200000e5                default_PM_ENABLE
                0x200000e6                default_LTA_ENABLE
 .data          0x200000ec       0x30 ..\obj\shell.o
 .data          0x2000011c        0x4 ..\obj\ShellCommand_misc.o
 .data          0x20000120       0x38 ..\obj\RTC.o
                0x20000128                MeasuredRTCClockFreq
                0x20000148                corInt
                0x20000150                invCorInt
 .data          0x20000158        0x1 ..\..\..\..\LTA_LIB\libbespoon_LTA_official.a(live_threshold_adjustment.o)
 .data.__fdlib_version
                0x20000159        0x1 c:/program files (x86)/gnu tools arm embedded/4.8 2013q4/bin/../lib/gcc/arm-none-eabi/4.8.3/../../../../arm-none-eabi/lib/armv6-m\libm.a(lib_a-s_lib_ver.o)
                0x20000159                __fdlib_version
 *fill*         0x2000015a        0x2 
 .data.__ctype_ptr__
                0x2000015c        0x4 c:/program files (x86)/gnu tools arm embedded/4.8 2013q4/bin/../lib/gcc/arm-none-eabi/4.8.3/../../../../arm-none-eabi/lib/armv6-m\libg.a(lib_a-ctype_.o)
                0x2000015c                __ctype_ptr__
 .data.impure_data
                0x20000160      0x428 c:/program files (x86)/gnu tools arm embedded/4.8 2013q4/bin/../lib/gcc/arm-none-eabi/4.8.3/../../../../arm-none-eabi/lib/armv6-m\libg.a(lib_a-impure.o)
 .data._impure_ptr
                0x20000588        0x4 c:/program files (x86)/gnu tools arm embedded/4.8 2013q4/bin/../lib/gcc/arm-none-eabi/4.8.3/../../../../arm-none-eabi/lib/armv6-m\libg.a(lib_a-impure.o)
                0x20000588                _impure_ptr
 .data.__malloc_av_
                0x2000058c      0x408 c:/program files (x86)/gnu tools arm embedded/4.8 2013q4/bin/../lib/gcc/arm-none-eabi/4.8.3/../../../../arm-none-eabi/lib/armv6-m\libg.a(lib_a-mallocr.o)
                0x2000058c                __malloc_av_
 .data.__malloc_trim_threshold
                0x20000994        0x4 c:/program files (x86)/gnu tools arm embedded/4.8 2013q4/bin/../lib/gcc/arm-none-eabi/4.8.3/../../../../arm-none-eabi/lib/armv6-m\libg.a(lib_a-mallocr.o)
                0x20000994                __malloc_trim_threshold
 .data.__malloc_sbrk_base
                0x20000998        0x4 c:/program files (x86)/gnu tools arm embedded/4.8 2013q4/bin/../lib/gcc/arm-none-eabi/4.8.3/../../../../arm-none-eabi/lib/armv6-m\libg.a(lib_a-mallocr.o)
                0x20000998                __malloc_sbrk_base
                0x2000099c                . = ALIGN (0x4)
                0x2000099c                PROVIDE (__preinit_array_start, .)
 *(.preinit_array)
                0x2000099c                PROVIDE (__preinit_array_end, .)
                0x2000099c                . = ALIGN (0x4)
                0x2000099c                PROVIDE (__init_array_start, .)
 *(SORT(.init_array.*))
 *(.init_array)
                0x2000099c                PROVIDE (__init_array_end, .)
                0x2000099c                . = ALIGN (0x4)
                0x2000099c                PROVIDE (__fini_array_start, .)
 *(SORT(.fini_array.*))
 *(.fini_array)
                0x2000099c                PROVIDE (__fini_array_end, .)
 *(.jcr*)
                0x2000099c                . = ALIGN (0x4)
                0x2000099c                __data_end__ = .
                0x2000099c                _edata = __data_end__

.igot.plt       0x2000099c        0x0 load address 0x08019c80
 .igot.plt      0x00000000        0x0 ..\obj\stm32f0xx_crc.o

.bss            0x200009a0      0x77c load address 0x08019c88
                0x200009a0                . = ALIGN (0x4)
                0x200009a0                __bss_start__ = .
                0x200009a0                _sbss = __bss_start__
 *(.bss*)
 .bss           0x200009a0        0x8 ..\obj\DAC.o
 .bss           0x200009a8        0x1 ..\obj\ShellCommand_radio.o
 *fill*         0x200009a9        0x3 
 .bss           0x200009ac       0x10 ..\obj\TIMER.o
                0x200009ac                CaptureNumber
                0x200009b0                PeriodValue
                0x200009b4                IC1ReadValue1
                0x200009b8                IC1ReadValue2
 .bss           0x200009bc       0x1c ..\obj\ADC.o
                0x200009bc                ADCConvertedValue
                0x200009c4                ADC_MeasureDone
                0x200009c8                Vptest
                0x200009cc                Vbat_Module
                0x200009d0                VDDA_real
                0x200009d4                Intern_Temperature
 .bss           0x200009d8       0x2c ..\obj\Ext_Com.o
                0x200009d8                EXTCOM_BUF_PCKTTRACE
                0x200009dc                EXTCOM_BUF
 .bss           0x20000a04        0x1 ..\obj\msq_config.o
                0x20000a04                host_irq_cnt
 *fill*         0x20000a05        0x3 
 .bss           0x20000a08       0xa8 ..\obj\uwbmodule_com_common.o
                0x20000aa8                read_from_cmd_fifo
                0x20000aac                write_to_cmd_fifo
 .bss           0x20000ab0      0x500 ..\obj\module_api_sys.o
                0x20000ab0                module_config
                0x20000fa0                lastbattery_and_temperature_update
 .bss           0x20000fb0        0x4 ..\obj\syscalls.o
 .bss           0x20000fb4       0x2c ..\obj\shell.o
 .bss           0x20000fe0        0x6 ..\obj\ShellCommand_misc.o
 *fill*         0x20000fe6        0x2 
 .bss           0x20000fe8       0x28 ..\obj\RTC.o
                0x20000fe8                corFloat
                0x20000ff0                invCorFloat
 .bss           0x20001010        0x1 ..\obj\stm32f0xx_pwr.o
 .bss           0x20001011        0x1 ..\obj\USART.o
                0x20001011                USE_SHELL_USART_NB
 *fill*         0x20001012        0x2 
 .bss.__malloc_max_total_mem
                0x20001014        0x4 c:/program files (x86)/gnu tools arm embedded/4.8 2013q4/bin/../lib/gcc/arm-none-eabi/4.8.3/../../../../arm-none-eabi/lib/armv6-m\libg.a(lib_a-mallocr.o)
                0x20001014                __malloc_max_total_mem
 .bss.__malloc_max_sbrked_mem
                0x20001018        0x4 c:/program files (x86)/gnu tools arm embedded/4.8 2013q4/bin/../lib/gcc/arm-none-eabi/4.8.3/../../../../arm-none-eabi/lib/armv6-m\libg.a(lib_a-mallocr.o)
                0x20001018                __malloc_max_sbrked_mem
 .bss.__malloc_top_pad
                0x2000101c        0x4 c:/program files (x86)/gnu tools arm embedded/4.8 2013q4/bin/../lib/gcc/arm-none-eabi/4.8.3/../../../../arm-none-eabi/lib/armv6-m\libg.a(lib_a-mallocr.o)
                0x2000101c                __malloc_top_pad
 .bss.__malloc_current_mallinfo
                0x20001020       0x28 c:/program files (x86)/gnu tools arm embedded/4.8 2013q4/bin/../lib/gcc/arm-none-eabi/4.8.3/../../../../arm-none-eabi/lib/armv6-m\libg.a(lib_a-mallocr.o)
                0x20001020                __malloc_current_mallinfo
 *(COMMON)
 COMMON         0x20001048       0xd0 ..\obj\module_api_sys.o
                0x20001048                ctx
                0x200010ac                contexte_config
 COMMON         0x20001118        0x4 c:/program files (x86)/gnu tools arm embedded/4.8 2013q4/bin/../lib/gcc/arm-none-eabi/4.8.3/../../../../arm-none-eabi/lib/armv6-m\libg.a(lib_a-reent.o)
                0x20001118                errno
                0x2000111c                . = ALIGN (0x4)
                0x2000111c                __bss_end__ = .
                0x2000111c                _ebss = __bss_end__

.heap           0x2000111c        0x0
                0x2000111c                __end__ = .
                0x2000111c                _end = __end__
                0x2000111c                end = __end__
 *(.heap*)
                0x2000111c                __HeapLimit = .

.co_stack       0x2000111c        0x4 load address 0x0801a404
                0x20001120                . = ALIGN (0x8)
 *fill*         0x2000111c        0x4 
 *(.co_stack .co_stack.*)
                0x20004000                __StackTop = (ORIGIN (ram) + 0x4000)
                0x20003ffc                __StackLimit = (__StackTop - SIZEOF (.co_stack))
                0x20004000                PROVIDE (__stack, __StackTop)
                0x00000001                ASSERT ((__StackLimit >= __HeapLimit), region ram  overflowed with stack)
LOAD ..\obj\stm32f0xx_crc.o
LOAD ..\obj\stm32f0xx_rcc.o
LOAD ..\obj\pinpointer_hw.o
LOAD ..\obj\stm32f0xx_adc.o
LOAD ..\obj\DAC.o
LOAD ..\obj\ACCELERO.o
LOAD ..\obj\stm32f0xx_iwdg.o
LOAD ..\obj\pp_conf_common.o
LOAD ..\obj\stm32f0xx_cec.o
LOAD ..\obj\main.o
LOAD ..\obj\pinpointer_config.o
LOAD ..\obj\RCC.o
LOAD ..\obj\startup_stm32f0xx.o
LOAD ..\obj\ShellCommand_radio.o
LOAD ..\obj\utils.o
LOAD ..\obj\module_api_seq.o
LOAD ..\obj\GPIO.o
LOAD ..\obj\stm32f0xx_dma.o
LOAD ..\obj\TIMER.o
LOAD ..\obj\ADC.o
LOAD ..\obj\Ext_Com.o
LOAD ..\obj\printf.o
LOAD ..\obj\module_api_radio.o
LOAD ..\obj\osal_synch.o
LOAD ..\obj\I2C.o
LOAD ..\obj\prodSection_read.o
LOAD ..\obj\stm32f0xx_spi.o
LOAD ..\obj\msq_config.o
LOAD ..\obj\stm32f0xx_i2c.o
LOAD ..\obj\uwbmodule_com_common.o
LOAD ..\obj\EXTI.o
LOAD ..\obj\stm32f0xx_gpio.o
LOAD ..\obj\stm32f0xx_comp.o
LOAD ..\obj\module_api_sys.o
LOAD ..\obj\stm32f0xx_rtc.o
LOAD ..\obj\syscalls.o
LOAD ..\obj\stm32f0xx_usart.o
LOAD ..\obj\stm32f0xx_crs.o
LOAD ..\obj\stm32f0xx_tim.o
LOAD ..\obj\shell.o
LOAD ..\obj\system_stm32f0xx.o
LOAD ..\obj\SPI.o
LOAD ..\obj\osal_math.o
LOAD ..\obj\stm32f0xx_flash.o
LOAD ..\obj\osal_stdlib.o
LOAD ..\obj\stm32f0xx_exti.o
LOAD ..\obj\stm32f0xx_wwdg.o
LOAD ..\obj\ShellCommand_system.o
LOAD ..\obj\stm32f0xx_dbgmcu.o
LOAD ..\obj\ShellCommand_misc.o
LOAD ..\obj\osal_comp.o
LOAD ..\obj\uwbmodule_com_specific.o
LOAD ..\obj\stm32f0xx_syscfg.o
LOAD ..\obj\RTC.o
LOAD ..\obj\stm32f0xx_pwr.o
LOAD ..\obj\USART.o
LOAD ..\obj\stm32f0xx_can.o
LOAD ..\obj\osal_trace_STM32.o
LOAD ..\obj\stm32f0xx_misc.o
LOAD ..\obj\stm32f0xx_dac.o
LOAD ..\obj\osal_time.o
LOAD ..\..\..\..\LTA_LIB\libbespoon_LTA_official.a
LOAD c:/program files (x86)/gnu tools arm embedded/4.8 2013q4/bin/../lib/gcc/arm-none-eabi/4.8.3/../../../../arm-none-eabi/lib/armv6-m\libm.a
START GROUP
LOAD c:/program files (x86)/gnu tools arm embedded/4.8 2013q4/bin/../lib/gcc/arm-none-eabi/4.8.3/armv6-m\libgcc.a
LOAD c:/program files (x86)/gnu tools arm embedded/4.8 2013q4/bin/../lib/gcc/arm-none-eabi/4.8.3/../../../../arm-none-eabi/lib/armv6-m\libg.a
LOAD c:/program files (x86)/gnu tools arm embedded/4.8 2013q4/bin/../lib/gcc/arm-none-eabi/4.8.3/../../../../arm-none-eabi/lib/armv6-m\libc.a
END GROUP
OUTPUT(Module.elf elf32-littlearm)

.debug_info     0x00000000    0x1b143
 .debug_info    0x00000000      0x9b5 ..\obj\stm32f0xx_rcc.o
 .debug_info    0x000009b5      0x937 ..\obj\pinpointer_hw.o
 .debug_info    0x000012ec      0x866 ..\obj\stm32f0xx_adc.o
 .debug_info    0x00001b52      0x1f1 ..\obj\DAC.o
 .debug_info    0x00001d43      0x181 ..\obj\ACCELERO.o
 .debug_info    0x00001ec4      0x391 ..\obj\pp_conf_common.o
 .debug_info    0x00002255      0x5fb ..\obj\main.o
 .debug_info    0x00002850     0x2043 ..\obj\pinpointer_config.o
 .debug_info    0x00004893      0x845 ..\obj\RCC.o
 .debug_info    0x000050d8       0xb5 ..\obj\startup_stm32f0xx.o
 .debug_info    0x0000518d      0x708 ..\obj\ShellCommand_radio.o
 .debug_info    0x00005895       0xb7 ..\obj\utils.o
 .debug_info    0x0000594c      0x635 ..\obj\module_api_seq.o
 .debug_info    0x00005f81      0x461 ..\obj\GPIO.o
 .debug_info    0x000063e2      0x3fb ..\obj\stm32f0xx_dma.o
 .debug_info    0x000067dd      0x706 ..\obj\TIMER.o
 .debug_info    0x00006ee3      0x56f ..\obj\ADC.o
 .debug_info    0x00007452      0x368 ..\obj\Ext_Com.o
 .debug_info    0x000077ba      0xf79 ..\obj\printf.o
 .debug_info    0x00008733     0x21f9 ..\obj\module_api_radio.o
 .debug_info    0x0000a92c      0x187 ..\obj\I2C.o
 .debug_info    0x0000aab3       0x87 ..\obj\prodSection_read.o
 .debug_info    0x0000ab3a      0xa23 ..\obj\stm32f0xx_spi.o
 .debug_info    0x0000b55d      0x9ea ..\obj\msq_config.o
 .debug_info    0x0000bf47      0x854 ..\obj\uwbmodule_com_common.o
 .debug_info    0x0000c79b      0x6a7 ..\obj\EXTI.o
 .debug_info    0x0000ce42      0x589 ..\obj\stm32f0xx_gpio.o
 .debug_info    0x0000d3cb     0x2b5c ..\obj\module_api_sys.o
 .debug_info    0x0000ff27      0xe6b ..\obj\stm32f0xx_rtc.o
 .debug_info    0x00010d92      0x3dd ..\obj\syscalls.o
 .debug_info    0x0001116f      0xda5 ..\obj\stm32f0xx_usart.o
 .debug_info    0x00011f14     0x1ac9 ..\obj\stm32f0xx_tim.o
 .debug_info    0x000139dd      0x45f ..\obj\shell.o
 .debug_info    0x00013e3c      0x27e ..\obj\system_stm32f0xx.o
 .debug_info    0x000140ba      0x7c5 ..\obj\SPI.o
 .debug_info    0x0001487f      0x16b ..\obj\osal_math.o
 .debug_info    0x000149ea      0x3c1 ..\obj\osal_stdlib.o
 .debug_info    0x00014dab      0x2f4 ..\obj\stm32f0xx_exti.o
 .debug_info    0x0001509f     0x16c0 ..\obj\ShellCommand_system.o
 .debug_info    0x0001675f      0xf59 ..\obj\ShellCommand_misc.o
 .debug_info    0x000176b8      0x651 ..\obj\uwbmodule_com_specific.o
 .debug_info    0x00017d09      0x282 ..\obj\stm32f0xx_syscfg.o
 .debug_info    0x00017f8b      0xd5c ..\obj\RTC.o
 .debug_info    0x00018ce7      0x516 ..\obj\stm32f0xx_pwr.o
 .debug_info    0x000191fd      0x9d1 ..\obj\USART.o
 .debug_info    0x00019bce      0x9b0 ..\obj\osal_trace_STM32.o
 .debug_info    0x0001a57e      0x34d ..\obj\stm32f0xx_misc.o
 .debug_info    0x0001a8cb      0x5bd ..\obj\stm32f0xx_dac.o
 .debug_info    0x0001ae88      0x2bb ..\obj\osal_time.o

.debug_abbrev   0x00000000     0x4bd5
 .debug_abbrev  0x00000000      0x213 ..\obj\stm32f0xx_rcc.o
 .debug_abbrev  0x00000213      0x221 ..\obj\pinpointer_hw.o
 .debug_abbrev  0x00000434      0x193 ..\obj\stm32f0xx_adc.o
 .debug_abbrev  0x000005c7       0xe7 ..\obj\DAC.o
 .debug_abbrev  0x000006ae       0x90 ..\obj\ACCELERO.o
 .debug_abbrev  0x0000073e      0x10e ..\obj\pp_conf_common.o
 .debug_abbrev  0x0000084c      0x16d ..\obj\main.o
 .debug_abbrev  0x000009b9      0x30a ..\obj\pinpointer_config.o
 .debug_abbrev  0x00000cc3      0x12f ..\obj\RCC.o
 .debug_abbrev  0x00000df2       0x12 ..\obj\startup_stm32f0xx.o
 .debug_abbrev  0x00000e04      0x13a ..\obj\ShellCommand_radio.o
 .debug_abbrev  0x00000f3e       0x62 ..\obj\utils.o
 .debug_abbrev  0x00000fa0      0x1d3 ..\obj\module_api_seq.o
 .debug_abbrev  0x00001173      0x1ca ..\obj\GPIO.o
 .debug_abbrev  0x0000133d      0x158 ..\obj\stm32f0xx_dma.o
 .debug_abbrev  0x00001495      0x195 ..\obj\TIMER.o
 .debug_abbrev  0x0000162a      0x149 ..\obj\ADC.o
 .debug_abbrev  0x00001773       0xe3 ..\obj\Ext_Com.o
 .debug_abbrev  0x00001856      0x2eb ..\obj\printf.o
 .debug_abbrev  0x00001b41      0x36e ..\obj\module_api_radio.o
 .debug_abbrev  0x00001eaf       0xa8 ..\obj\I2C.o
 .debug_abbrev  0x00001f57       0x33 ..\obj\prodSection_read.o
 .debug_abbrev  0x00001f8a      0x1aa ..\obj\stm32f0xx_spi.o
 .debug_abbrev  0x00002134      0x1ce ..\obj\msq_config.o
 .debug_abbrev  0x00002302      0x1ac ..\obj\uwbmodule_com_common.o
 .debug_abbrev  0x000024ae      0x15f ..\obj\EXTI.o
 .debug_abbrev  0x0000260d      0x1a8 ..\obj\stm32f0xx_gpio.o
 .debug_abbrev  0x000027b5      0x3c5 ..\obj\module_api_sys.o
 .debug_abbrev  0x00002b7a      0x1cf ..\obj\stm32f0xx_rtc.o
 .debug_abbrev  0x00002d49       0xe2 ..\obj\syscalls.o
 .debug_abbrev  0x00002e2b      0x176 ..\obj\stm32f0xx_usart.o
 .debug_abbrev  0x00002fa1      0x197 ..\obj\stm32f0xx_tim.o
 .debug_abbrev  0x00003138      0x1e1 ..\obj\shell.o
 .debug_abbrev  0x00003319      0x100 ..\obj\system_stm32f0xx.o
 .debug_abbrev  0x00003419      0x1b3 ..\obj\SPI.o
 .debug_abbrev  0x000035cc       0x9c ..\obj\osal_math.o
 .debug_abbrev  0x00003668       0xda ..\obj\osal_stdlib.o
 .debug_abbrev  0x00003742      0x1a6 ..\obj\stm32f0xx_exti.o
 .debug_abbrev  0x000038e8      0x26b ..\obj\ShellCommand_system.o
 .debug_abbrev  0x00003b53      0x2a9 ..\obj\ShellCommand_misc.o
 .debug_abbrev  0x00003dfc      0x157 ..\obj\uwbmodule_com_specific.o
 .debug_abbrev  0x00003f53      0x15b ..\obj\stm32f0xx_syscfg.o
 .debug_abbrev  0x000040ae      0x27c ..\obj\RTC.o
 .debug_abbrev  0x0000432a      0x191 ..\obj\stm32f0xx_pwr.o
 .debug_abbrev  0x000044bb      0x1e7 ..\obj\USART.o
 .debug_abbrev  0x000046a2      0x155 ..\obj\osal_trace_STM32.o
 .debug_abbrev  0x000047f7      0x141 ..\obj\stm32f0xx_misc.o
 .debug_abbrev  0x00004938      0x19b ..\obj\stm32f0xx_dac.o
 .debug_abbrev  0x00004ad3      0x102 ..\obj\osal_time.o

.debug_aranges  0x00000000     0x1fd8
 .debug_aranges
                0x00000000      0x160 ..\obj\stm32f0xx_rcc.o
 .debug_aranges
                0x00000160       0xa0 ..\obj\pinpointer_hw.o
 .debug_aranges
                0x00000200      0x108 ..\obj\stm32f0xx_adc.o
 .debug_aranges
                0x00000308       0x50 ..\obj\DAC.o
 .debug_aranges
                0x00000358       0x80 ..\obj\ACCELERO.o
 .debug_aranges
                0x000003d8       0x50 ..\obj\pp_conf_common.o
 .debug_aranges
                0x00000428       0x60 ..\obj\main.o
 .debug_aranges
                0x00000488      0x180 ..\obj\pinpointer_config.o
 .debug_aranges
                0x00000608       0x50 ..\obj\RCC.o
 .debug_aranges
                0x00000658       0x28 ..\obj\startup_stm32f0xx.o
 .debug_aranges
                0x00000680       0x40 ..\obj\ShellCommand_radio.o
 .debug_aranges
                0x000006c0       0x28 ..\obj\utils.o
 .debug_aranges
                0x000006e8       0x98 ..\obj\module_api_seq.o
 .debug_aranges
                0x00000780       0x50 ..\obj\GPIO.o
 .debug_aranges
                0x000007d0       0x70 ..\obj\stm32f0xx_dma.o
 .debug_aranges
                0x00000840       0x78 ..\obj\TIMER.o
 .debug_aranges
                0x000008b8       0x40 ..\obj\ADC.o
 .debug_aranges
                0x000008f8       0x28 ..\obj\Ext_Com.o
 .debug_aranges
                0x00000920       0xa8 ..\obj\printf.o
 .debug_aranges
                0x000009c8      0x1b0 ..\obj\module_api_radio.o
 .debug_aranges
                0x00000b78       0x48 ..\obj\I2C.o
 .debug_aranges
                0x00000bc0       0x20 ..\obj\prodSection_read.o
 .debug_aranges
                0x00000be0      0x110 ..\obj\stm32f0xx_spi.o
 .debug_aranges
                0x00000cf0       0xa0 ..\obj\msq_config.o
 .debug_aranges
                0x00000d90       0x60 ..\obj\uwbmodule_com_common.o
 .debug_aranges
                0x00000df0       0x50 ..\obj\EXTI.o
 .debug_aranges
                0x00000e40       0x80 ..\obj\stm32f0xx_gpio.o
 .debug_aranges
                0x00000ec0      0x2e0 ..\obj\module_api_sys.o
 .debug_aranges
                0x000011a0      0x1c0 ..\obj\stm32f0xx_rtc.o
 .debug_aranges
                0x00001360       0x60 ..\obj\syscalls.o
 .debug_aranges
                0x000013c0      0x1a0 ..\obj\stm32f0xx_usart.o
 .debug_aranges
                0x00001560      0x300 ..\obj\stm32f0xx_tim.o
 .debug_aranges
                0x00001860       0x48 ..\obj\shell.o
 .debug_aranges
                0x000018a8       0x30 ..\obj\system_stm32f0xx.o
 .debug_aranges
                0x000018d8       0x90 ..\obj\SPI.o
 .debug_aranges
                0x00001968       0x38 ..\obj\osal_math.o
 .debug_aranges
                0x000019a0       0x58 ..\obj\osal_stdlib.o
 .debug_aranges
                0x000019f8       0x58 ..\obj\stm32f0xx_exti.o
 .debug_aranges
                0x00001a50      0x148 ..\obj\ShellCommand_system.o
 .debug_aranges
                0x00001b98       0x88 ..\obj\ShellCommand_misc.o
 .debug_aranges
                0x00001c20       0x48 ..\obj\uwbmodule_com_specific.o
 .debug_aranges
                0x00001c68       0x58 ..\obj\stm32f0xx_syscfg.o
 .debug_aranges
                0x00001cc0       0xa0 ..\obj\RTC.o
 .debug_aranges
                0x00001d60       0x78 ..\obj\stm32f0xx_pwr.o
 .debug_aranges
                0x00001dd8       0x60 ..\obj\USART.o
 .debug_aranges
                0x00001e38       0x78 ..\obj\osal_trace_STM32.o
 .debug_aranges
                0x00001eb0       0x30 ..\obj\stm32f0xx_misc.o
 .debug_aranges
                0x00001ee0       0xa0 ..\obj\stm32f0xx_dac.o
 .debug_aranges
                0x00001f80       0x58 ..\obj\osal_time.o

.debug_ranges   0x00000000     0x1d10
 .debug_ranges  0x00000000      0x150 ..\obj\stm32f0xx_rcc.o
 .debug_ranges  0x00000150       0x90 ..\obj\pinpointer_hw.o
 .debug_ranges  0x000001e0       0xf8 ..\obj\stm32f0xx_adc.o
 .debug_ranges  0x000002d8       0x40 ..\obj\DAC.o
 .debug_ranges  0x00000318       0x70 ..\obj\ACCELERO.o
 .debug_ranges  0x00000388       0x40 ..\obj\pp_conf_common.o
 .debug_ranges  0x000003c8       0x50 ..\obj\main.o
 .debug_ranges  0x00000418      0x170 ..\obj\pinpointer_config.o
 .debug_ranges  0x00000588       0x40 ..\obj\RCC.o
 .debug_ranges  0x000005c8       0x20 ..\obj\startup_stm32f0xx.o
 .debug_ranges  0x000005e8       0x30 ..\obj\ShellCommand_radio.o
 .debug_ranges  0x00000618       0x18 ..\obj\utils.o
 .debug_ranges  0x00000630       0x88 ..\obj\module_api_seq.o
 .debug_ranges  0x000006b8       0x40 ..\obj\GPIO.o
 .debug_ranges  0x000006f8       0x60 ..\obj\stm32f0xx_dma.o
 .debug_ranges  0x00000758       0x68 ..\obj\TIMER.o
 .debug_ranges  0x000007c0       0x30 ..\obj\ADC.o
 .debug_ranges  0x000007f0       0x18 ..\obj\Ext_Com.o
 .debug_ranges  0x00000808       0x98 ..\obj\printf.o
 .debug_ranges  0x000008a0      0x1a0 ..\obj\module_api_radio.o
 .debug_ranges  0x00000a40       0x38 ..\obj\I2C.o
 .debug_ranges  0x00000a78       0x10 ..\obj\prodSection_read.o
 .debug_ranges  0x00000a88      0x100 ..\obj\stm32f0xx_spi.o
 .debug_ranges  0x00000b88       0x90 ..\obj\msq_config.o
 .debug_ranges  0x00000c18       0x50 ..\obj\uwbmodule_com_common.o
 .debug_ranges  0x00000c68       0x40 ..\obj\EXTI.o
 .debug_ranges  0x00000ca8       0x70 ..\obj\stm32f0xx_gpio.o
 .debug_ranges  0x00000d18      0x2d0 ..\obj\module_api_sys.o
 .debug_ranges  0x00000fe8      0x1b0 ..\obj\stm32f0xx_rtc.o
 .debug_ranges  0x00001198       0x50 ..\obj\syscalls.o
 .debug_ranges  0x000011e8      0x190 ..\obj\stm32f0xx_usart.o
 .debug_ranges  0x00001378      0x2f0 ..\obj\stm32f0xx_tim.o
 .debug_ranges  0x00001668       0x60 ..\obj\shell.o
 .debug_ranges  0x000016c8       0x20 ..\obj\system_stm32f0xx.o
 .debug_ranges  0x000016e8       0x80 ..\obj\SPI.o
 .debug_ranges  0x00001768       0x28 ..\obj\osal_math.o
 .debug_ranges  0x00001790       0x48 ..\obj\osal_stdlib.o
 .debug_ranges  0x000017d8       0x48 ..\obj\stm32f0xx_exti.o
 .debug_ranges  0x00001820      0x138 ..\obj\ShellCommand_system.o
 .debug_ranges  0x00001958       0x90 ..\obj\ShellCommand_misc.o
 .debug_ranges  0x000019e8       0x38 ..\obj\uwbmodule_com_specific.o
 .debug_ranges  0x00001a20       0x48 ..\obj\stm32f0xx_syscfg.o
 .debug_ranges  0x00001a68       0x90 ..\obj\RTC.o
 .debug_ranges  0x00001af8       0x68 ..\obj\stm32f0xx_pwr.o
 .debug_ranges  0x00001b60       0x50 ..\obj\USART.o
 .debug_ranges  0x00001bb0       0x68 ..\obj\osal_trace_STM32.o
 .debug_ranges  0x00001c18       0x20 ..\obj\stm32f0xx_misc.o
 .debug_ranges  0x00001c38       0x90 ..\obj\stm32f0xx_dac.o
 .debug_ranges  0x00001cc8       0x48 ..\obj\osal_time.o

.debug_line     0x00000000     0xae47
 .debug_line    0x00000000      0x549 ..\obj\stm32f0xx_rcc.o
 .debug_line    0x00000549      0x31e ..\obj\pinpointer_hw.o
 .debug_line    0x00000867      0x3fa ..\obj\stm32f0xx_adc.o
 .debug_line    0x00000c61      0x1da ..\obj\DAC.o
 .debug_line    0x00000e3b      0x134 ..\obj\ACCELERO.o
 .debug_line    0x00000f6f      0x161 ..\obj\pp_conf_common.o
 .debug_line    0x000010d0      0x20f ..\obj\main.o
 .debug_line    0x000012df      0x8b9 ..\obj\pinpointer_config.o
 .debug_line    0x00001b98      0x283 ..\obj\RCC.o
 .debug_line    0x00001e1b       0xaf ..\obj\startup_stm32f0xx.o
 .debug_line    0x00001eca      0x1f6 ..\obj\ShellCommand_radio.o
 .debug_line    0x000020c0       0x74 ..\obj\utils.o
 .debug_line    0x00002134      0x282 ..\obj\module_api_seq.o
 .debug_line    0x000023b6      0x288 ..\obj\GPIO.o
 .debug_line    0x0000263e      0x26b ..\obj\stm32f0xx_dma.o
 .debug_line    0x000028a9      0x362 ..\obj\TIMER.o
 .debug_line    0x00002c0b      0x2ed ..\obj\ADC.o
 .debug_line    0x00002ef8      0x188 ..\obj\Ext_Com.o
 .debug_line    0x00003080      0x47c ..\obj\printf.o
 .debug_line    0x000034fc      0xb5d ..\obj\module_api_radio.o
 .debug_line    0x00004059       0xcd ..\obj\I2C.o
 .debug_line    0x00004126       0x6b ..\obj\prodSection_read.o
 .debug_line    0x00004191      0x476 ..\obj\stm32f0xx_spi.o
 .debug_line    0x00004607      0x39f ..\obj\msq_config.o
 .debug_line    0x000049a6      0x2d4 ..\obj\uwbmodule_com_common.o
 .debug_line    0x00004c7a      0x340 ..\obj\EXTI.o
 .debug_line    0x00004fba      0x291 ..\obj\stm32f0xx_gpio.o
 .debug_line    0x0000524b      0xfb6 ..\obj\module_api_sys.o
 .debug_line    0x00006201      0x805 ..\obj\stm32f0xx_rtc.o
 .debug_line    0x00006a06      0x170 ..\obj\syscalls.o
 .debug_line    0x00006b76      0x60a ..\obj\stm32f0xx_usart.o
 .debug_line    0x00007180      0xa9f ..\obj\stm32f0xx_tim.o
 .debug_line    0x00007c1f      0x31a ..\obj\shell.o
 .debug_line    0x00007f39      0x140 ..\obj\system_stm32f0xx.o
 .debug_line    0x00008079      0x3ad ..\obj\SPI.o
 .debug_line    0x00008426       0xd0 ..\obj\osal_math.o
 .debug_line    0x000084f6      0x199 ..\obj\osal_stdlib.o
 .debug_line    0x0000868f      0x212 ..\obj\stm32f0xx_exti.o
 .debug_line    0x000088a1      0x8b4 ..\obj\ShellCommand_system.o
 .debug_line    0x00009155      0x551 ..\obj\ShellCommand_misc.o
 .debug_line    0x000096a6      0x30b ..\obj\uwbmodule_com_specific.o
 .debug_line    0x000099b1      0x1c1 ..\obj\stm32f0xx_syscfg.o
 .debug_line    0x00009b72      0x4d4 ..\obj\RTC.o
 .debug_line    0x0000a046      0x30d ..\obj\stm32f0xx_pwr.o
 .debug_line    0x0000a353      0x26d ..\obj\USART.o
 .debug_line    0x0000a5c0      0x200 ..\obj\osal_trace_STM32.o
 .debug_line    0x0000a7c0      0x1dd ..\obj\stm32f0xx_misc.o
 .debug_line    0x0000a99d      0x2d1 ..\obj\stm32f0xx_dac.o
 .debug_line    0x0000ac6e      0x1d9 ..\obj\osal_time.o

.debug_str      0x00000000     0x9b65
 .debug_str     0x00000000      0x6d7 ..\obj\stm32f0xx_rcc.o
                                0x768 (size before relaxing)
 .debug_str     0x000006d7      0x2e2 ..\obj\pinpointer_hw.o
                                0x435 (size before relaxing)
 .debug_str     0x000009b9      0x406 ..\obj\stm32f0xx_adc.o
                                0x5ac (size before relaxing)
 .debug_str     0x00000dbf      0x175 ..\obj\DAC.o
                                0x29d (size before relaxing)
 .debug_str     0x00000f34       0xe8 ..\obj\ACCELERO.o
                                0x1a0 (size before relaxing)
 .debug_str     0x0000101c      0x1bb ..\obj\pp_conf_common.o
                                0x345 (size before relaxing)
 .debug_str     0x000011d7      0x981 ..\obj\main.o
                                0xb3d (size before relaxing)
 .debug_str     0x00001b58      0xe35 ..\obj\pinpointer_config.o
                               0x12cb (size before relaxing)
 .debug_str     0x0000298d       0xf6 ..\obj\RCC.o
                                0x624 (size before relaxing)
 .debug_str     0x00002a83      0x1b8 ..\obj\ShellCommand_radio.o
                                0x854 (size before relaxing)
 .debug_str     0x00002c3b       0x3a ..\obj\utils.o
                                0x140 (size before relaxing)
 .debug_str     0x00002c75      0x36e ..\obj\module_api_seq.o
                                0x8f1 (size before relaxing)
 .debug_str     0x00002fe3      0x25b ..\obj\GPIO.o
                                0x442 (size before relaxing)
 .debug_str     0x0000323e      0x21a ..\obj\stm32f0xx_dma.o
                                0x388 (size before relaxing)
 .debug_str     0x00003458      0x579 ..\obj\TIMER.o
                                0x80f (size before relaxing)
 .debug_str     0x000039d1      0x191 ..\obj\ADC.o
                                0x735 (size before relaxing)
 .debug_str     0x00003b62      0x19e ..\obj\Ext_Com.o
                                0x5c9 (size before relaxing)
 .debug_str     0x00003d00      0x4b9 ..\obj\printf.o
                                0x704 (size before relaxing)
 .debug_str     0x000041b9      0x99c ..\obj\module_api_radio.o
                               0x1909 (size before relaxing)
 .debug_str     0x00004b55       0xbc ..\obj\I2C.o
                                0x1cc (size before relaxing)
 .debug_str     0x00004c11       0x4f ..\obj\prodSection_read.o
                                0x15e (size before relaxing)
 .debug_str     0x00004c60      0x44f ..\obj\stm32f0xx_spi.o
                                0x700 (size before relaxing)
 .debug_str     0x000050af      0x2f7 ..\obj\msq_config.o
                                0x6d3 (size before relaxing)
 .debug_str     0x000053a6      0x209 ..\obj\uwbmodule_com_common.o
                                0xc95 (size before relaxing)
 .debug_str     0x000055af      0x1ac ..\obj\EXTI.o
                                0x806 (size before relaxing)
 .debug_str     0x0000575b      0x171 ..\obj\stm32f0xx_gpio.o
                                0x469 (size before relaxing)
 .debug_str     0x000058cc      0xf0d ..\obj\module_api_sys.o
                               0x245a (size before relaxing)
 .debug_str     0x000067d9      0x841 ..\obj\stm32f0xx_rtc.o
                                0xa2f (size before relaxing)
 .debug_str     0x0000701a      0x13d ..\obj\syscalls.o
                                0x2da (size before relaxing)
 .debug_str     0x00007157      0x6bd ..\obj\stm32f0xx_usart.o
                                0x955 (size before relaxing)
 .debug_str     0x00007814      0xa55 ..\obj\stm32f0xx_tim.o
                                0xdbb (size before relaxing)
 .debug_str     0x00008269      0x157 ..\obj\shell.o
                                0x2f1 (size before relaxing)
 .debug_str     0x000083c0       0xa6 ..\obj\system_stm32f0xx.o
                                0x246 (size before relaxing)
 .debug_str     0x00008466      0x190 ..\obj\SPI.o
                                0x58a (size before relaxing)
 .debug_str     0x000085f6       0x95 ..\obj\osal_math.o
                                0x19b (size before relaxing)
 .debug_str     0x0000868b       0xfc ..\obj\osal_stdlib.o
                                0x2ac (size before relaxing)
 .debug_str     0x00008787       0xe9 ..\obj\stm32f0xx_exti.o
                                0x321 (size before relaxing)
 .debug_str     0x00008870      0x2ee ..\obj\ShellCommand_system.o
                                0xa4a (size before relaxing)
 .debug_str     0x00008b5e      0x29c ..\obj\ShellCommand_misc.o
                                0xc24 (size before relaxing)
 .debug_str     0x00008dfa       0xe9 ..\obj\uwbmodule_com_specific.o
                                0xb77 (size before relaxing)
 .debug_str     0x00008ee3      0x191 ..\obj\stm32f0xx_syscfg.o
                                0x303 (size before relaxing)
 .debug_str     0x00009074      0x36d ..\obj\RTC.o
                                0xac1 (size before relaxing)
 .debug_str     0x000093e1      0x1e9 ..\obj\stm32f0xx_pwr.o
                                0x36a (size before relaxing)
 .debug_str     0x000095ca      0x113 ..\obj\USART.o
                                0x734 (size before relaxing)
 .debug_str     0x000096dd       0x6f ..\obj\osal_trace_STM32.o
                                0x5bf (size before relaxing)
 .debug_str     0x0000974c       0xf9 ..\obj\stm32f0xx_misc.o
                                0x2de (size before relaxing)
 .debug_str     0x00009845      0x218 ..\obj\stm32f0xx_dac.o
                                0x413 (size before relaxing)
 .debug_str     0x00009a5d      0x108 ..\obj\osal_time.o
                                0x269 (size before relaxing)

.comment        0x00000000       0x70
 .comment       0x00000000       0x70 ..\obj\stm32f0xx_rcc.o
                                 0x71 (size before relaxing)
 .comment       0x00000000       0x71 ..\obj\pinpointer_hw.o
 .comment       0x00000000       0x71 ..\obj\stm32f0xx_adc.o
 .comment       0x00000000       0x71 ..\obj\DAC.o
 .comment       0x00000000       0x71 ..\obj\ACCELERO.o
 .comment       0x00000000       0x71 ..\obj\pp_conf_common.o
 .comment       0x00000000       0x71 ..\obj\main.o
 .comment       0x00000000       0x71 ..\obj\pinpointer_config.o
 .comment       0x00000000       0x71 ..\obj\RCC.o
 .comment       0x00000000       0x71 ..\obj\ShellCommand_radio.o
 .comment       0x00000000       0x71 ..\obj\utils.o
 .comment       0x00000000       0x71 ..\obj\module_api_seq.o
 .comment       0x00000000       0x71 ..\obj\GPIO.o
 .comment       0x00000000       0x71 ..\obj\stm32f0xx_dma.o
 .comment       0x00000000       0x71 ..\obj\TIMER.o
 .comment       0x00000000       0x71 ..\obj\ADC.o
 .comment       0x00000000       0x71 ..\obj\Ext_Com.o
 .comment       0x00000000       0x71 ..\obj\printf.o
 .comment       0x00000000       0x71 ..\obj\module_api_radio.o
 .comment       0x00000000       0x71 ..\obj\I2C.o
 .comment       0x00000000       0x71 ..\obj\prodSection_read.o
 .comment       0x00000000       0x71 ..\obj\stm32f0xx_spi.o
 .comment       0x00000000       0x71 ..\obj\msq_config.o
 .comment       0x00000000       0x71 ..\obj\uwbmodule_com_common.o
 .comment       0x00000000       0x71 ..\obj\EXTI.o
 .comment       0x00000000       0x71 ..\obj\stm32f0xx_gpio.o
 .comment       0x00000000       0x71 ..\obj\module_api_sys.o
 .comment       0x00000000       0x71 ..\obj\stm32f0xx_rtc.o
 .comment       0x00000000       0x71 ..\obj\syscalls.o
 .comment       0x00000000       0x71 ..\obj\stm32f0xx_usart.o
 .comment       0x00000000       0x71 ..\obj\stm32f0xx_tim.o
 .comment       0x00000000       0x71 ..\obj\shell.o
 .comment       0x00000000       0x71 ..\obj\system_stm32f0xx.o
 .comment       0x00000000       0x71 ..\obj\SPI.o
 .comment       0x00000000       0x71 ..\obj\osal_math.o
 .comment       0x00000000       0x71 ..\obj\osal_stdlib.o
 .comment       0x00000000       0x71 ..\obj\stm32f0xx_exti.o
 .comment       0x00000000       0x71 ..\obj\ShellCommand_system.o
 .comment       0x00000000       0x71 ..\obj\ShellCommand_misc.o
 .comment       0x00000000       0x71 ..\obj\uwbmodule_com_specific.o
 .comment       0x00000000       0x71 ..\obj\stm32f0xx_syscfg.o
 .comment       0x00000000       0x71 ..\obj\RTC.o
 .comment       0x00000000       0x71 ..\obj\stm32f0xx_pwr.o
 .comment       0x00000000       0x71 ..\obj\USART.o
 .comment       0x00000000       0x71 ..\obj\osal_trace_STM32.o
 .comment       0x00000000       0x71 ..\obj\stm32f0xx_misc.o
 .comment       0x00000000       0x71 ..\obj\stm32f0xx_dac.o
 .comment       0x00000000       0x71 ..\obj\osal_time.o
 .comment       0x00000000       0x71 ..\..\..\..\LTA_LIB\libbespoon_LTA_official.a(afc_filter.o)
 .comment       0x00000000       0x71 ..\..\..\..\LTA_LIB\libbespoon_LTA_official.a(live_threshold_adjustment.o)
 .comment       0x00000000       0x71 ..\..\..\..\LTA_LIB\libbespoon_LTA_official.a(memPool.o)

.ARM.attributes
                0x00000000       0x2f
 .ARM.attributes
                0x00000000       0x31 ..\obj\stm32f0xx_rcc.o
 .ARM.attributes
                0x00000031       0x31 ..\obj\pinpointer_hw.o
 .ARM.attributes
                0x00000062       0x31 ..\obj\stm32f0xx_adc.o
 .ARM.attributes
                0x00000093       0x31 ..\obj\DAC.o
 .ARM.attributes
                0x000000c4       0x31 ..\obj\ACCELERO.o
 .ARM.attributes
                0x000000f5       0x31 ..\obj\pp_conf_common.o
 .ARM.attributes
                0x00000126       0x31 ..\obj\main.o
 .ARM.attributes
                0x00000157       0x31 ..\obj\pinpointer_config.o
 .ARM.attributes
                0x00000188       0x31 ..\obj\RCC.o
 .ARM.attributes
                0x000001b9       0x21 ..\obj\startup_stm32f0xx.o
 .ARM.attributes
                0x000001da       0x31 ..\obj\ShellCommand_radio.o
 .ARM.attributes
                0x0000020b       0x31 ..\obj\utils.o
 .ARM.attributes
                0x0000023c       0x31 ..\obj\module_api_seq.o
 .ARM.attributes
                0x0000026d       0x31 ..\obj\GPIO.o
 .ARM.attributes
                0x0000029e       0x31 ..\obj\stm32f0xx_dma.o
 .ARM.attributes
                0x000002cf       0x31 ..\obj\TIMER.o
 .ARM.attributes
                0x00000300       0x31 ..\obj\ADC.o
 .ARM.attributes
                0x00000331       0x31 ..\obj\Ext_Com.o
 .ARM.attributes
                0x00000362       0x31 ..\obj\printf.o
 .ARM.attributes
                0x00000393       0x31 ..\obj\module_api_radio.o
 .ARM.attributes
                0x000003c4       0x31 ..\obj\I2C.o
 .ARM.attributes
                0x000003f5       0x31 ..\obj\prodSection_read.o
 .ARM.attributes
                0x00000426       0x31 ..\obj\stm32f0xx_spi.o
 .ARM.attributes
                0x00000457       0x31 ..\obj\msq_config.o
 .ARM.attributes
                0x00000488       0x31 ..\obj\uwbmodule_com_common.o
 .ARM.attributes
                0x000004b9       0x31 ..\obj\EXTI.o
 .ARM.attributes
                0x000004ea       0x31 ..\obj\stm32f0xx_gpio.o
 .ARM.attributes
                0x0000051b       0x31 ..\obj\module_api_sys.o
 .ARM.attributes
                0x0000054c       0x31 ..\obj\stm32f0xx_rtc.o
 .ARM.attributes
                0x0000057d       0x31 ..\obj\syscalls.o
 .ARM.attributes
                0x000005ae       0x31 ..\obj\stm32f0xx_usart.o
 .ARM.attributes
                0x000005df       0x31 ..\obj\stm32f0xx_tim.o
 .ARM.attributes
                0x00000610       0x31 ..\obj\shell.o
 .ARM.attributes
                0x00000641       0x31 ..\obj\system_stm32f0xx.o
 .ARM.attributes
                0x00000672       0x31 ..\obj\SPI.o
 .ARM.attributes
                0x000006a3       0x31 ..\obj\osal_math.o
 .ARM.attributes
                0x000006d4       0x31 ..\obj\osal_stdlib.o
 .ARM.attributes
                0x00000705       0x31 ..\obj\stm32f0xx_exti.o
 .ARM.attributes
                0x00000736       0x31 ..\obj\ShellCommand_system.o
 .ARM.attributes
                0x00000767       0x31 ..\obj\ShellCommand_misc.o
 .ARM.attributes
                0x00000798       0x31 ..\obj\uwbmodule_com_specific.o
 .ARM.attributes
                0x000007c9       0x31 ..\obj\stm32f0xx_syscfg.o
 .ARM.attributes
                0x000007fa       0x31 ..\obj\RTC.o
 .ARM.attributes
                0x0000082b       0x31 ..\obj\stm32f0xx_pwr.o
 .ARM.attributes
                0x0000085c       0x31 ..\obj\USART.o
 .ARM.attributes
                0x0000088d       0x31 ..\obj\osal_trace_STM32.o
 .ARM.attributes
                0x000008be       0x31 ..\obj\stm32f0xx_misc.o
 .ARM.attributes
                0x000008ef       0x31 ..\obj\stm32f0xx_dac.o
 .ARM.attributes
                0x00000920       0x31 ..\obj\osal_time.o
 .ARM.attributes
                0x00000951       0x31 ..\..\..\..\LTA_LIB\libbespoon_LTA_official.a(afc_filter.o)
 .ARM.attributes
                0x00000982       0x31 ..\..\..\..\LTA_LIB\libbespoon_LTA_official.a(live_threshold_adjustment.o)
 .ARM.attributes
                0x000009b3       0x31 ..\..\..\..\LTA_LIB\libbespoon_LTA_official.a(memPool.o)
 .ARM.attributes
                0x000009e4       0x2c c:/program files (x86)/gnu tools arm embedded/4.8 2013q4/bin/../lib/gcc/arm-none-eabi/4.8.3/../../../../arm-none-eabi/lib/armv6-m\libm.a(lib_a-wf_log10.o)
 .ARM.attributes
                0x00000a10       0x2c c:/program files (x86)/gnu tools arm embedded/4.8 2013q4/bin/../lib/gcc/arm-none-eabi/4.8.3/../../../../arm-none-eabi/lib/armv6-m\libm.a(lib_a-ef_log10.o)
 .ARM.attributes
                0x00000a3c       0x2c c:/program files (x86)/gnu tools arm embedded/4.8 2013q4/bin/../lib/gcc/arm-none-eabi/4.8.3/../../../../arm-none-eabi/lib/armv6-m\libm.a(lib_a-s_lib_ver.o)
 .ARM.attributes
                0x00000a68       0x2c c:/program files (x86)/gnu tools arm embedded/4.8 2013q4/bin/../lib/gcc/arm-none-eabi/4.8.3/../../../../arm-none-eabi/lib/armv6-m\libm.a(lib_a-s_matherr.o)
 .ARM.attributes
                0x00000a94       0x2c c:/program files (x86)/gnu tools arm embedded/4.8 2013q4/bin/../lib/gcc/arm-none-eabi/4.8.3/../../../../arm-none-eabi/lib/armv6-m\libm.a(lib_a-s_nan.o)
 .ARM.attributes
                0x00000ac0       0x2c c:/program files (x86)/gnu tools arm embedded/4.8 2013q4/bin/../lib/gcc/arm-none-eabi/4.8.3/../../../../arm-none-eabi/lib/armv6-m\libm.a(lib_a-sf_fpclassify.o)
 .ARM.attributes
                0x00000aec       0x2c c:/program files (x86)/gnu tools arm embedded/4.8 2013q4/bin/../lib/gcc/arm-none-eabi/4.8.3/../../../../arm-none-eabi/lib/armv6-m\libm.a(lib_a-ef_log.o)
 .ARM.attributes
                0x00000b18       0x1e c:/program files (x86)/gnu tools arm embedded/4.8 2013q4/bin/../lib/gcc/arm-none-eabi/4.8.3/armv6-m\libgcc.a(_thumb1_case_uqi.o)
 .ARM.attributes
                0x00000b36       0x1e c:/program files (x86)/gnu tools arm embedded/4.8 2013q4/bin/../lib/gcc/arm-none-eabi/4.8.3/armv6-m\libgcc.a(_udivsi3.o)
 .ARM.attributes
                0x00000b54       0x1e c:/program files (x86)/gnu tools arm embedded/4.8 2013q4/bin/../lib/gcc/arm-none-eabi/4.8.3/armv6-m\libgcc.a(_divsi3.o)
 .ARM.attributes
                0x00000b72       0x1e c:/program files (x86)/gnu tools arm embedded/4.8 2013q4/bin/../lib/gcc/arm-none-eabi/4.8.3/armv6-m\libgcc.a(_dvmd_tls.o)
 .ARM.attributes
                0x00000b90       0x1e c:/program files (x86)/gnu tools arm embedded/4.8 2013q4/bin/../lib/gcc/arm-none-eabi/4.8.3/armv6-m\libgcc.a(_lshrdi3.o)
 .ARM.attributes
                0x00000bae       0x1e c:/program files (x86)/gnu tools arm embedded/4.8 2013q4/bin/../lib/gcc/arm-none-eabi/4.8.3/armv6-m\libgcc.a(_ashldi3.o)
 .ARM.attributes
                0x00000bcc       0x1e c:/program files (x86)/gnu tools arm embedded/4.8 2013q4/bin/../lib/gcc/arm-none-eabi/4.8.3/armv6-m\libgcc.a(_arm_cmpsf2.o)
 .ARM.attributes
                0x00000bea       0x1e c:/program files (x86)/gnu tools arm embedded/4.8 2013q4/bin/../lib/gcc/arm-none-eabi/4.8.3/armv6-m\libgcc.a(_aeabi_ldivmod.o)
 .ARM.attributes
                0x00000c08       0x1e c:/program files (x86)/gnu tools arm embedded/4.8 2013q4/bin/../lib/gcc/arm-none-eabi/4.8.3/armv6-m\libgcc.a(_aeabi_uldivmod.o)
 .ARM.attributes
                0x00000c26       0x2c c:/program files (x86)/gnu tools arm embedded/4.8 2013q4/bin/../lib/gcc/arm-none-eabi/4.8.3/armv6-m\libgcc.a(_muldi3.o)
 .ARM.attributes
                0x00000c52       0x2c c:/program files (x86)/gnu tools arm embedded/4.8 2013q4/bin/../lib/gcc/arm-none-eabi/4.8.3/armv6-m\libgcc.a(_fixunssfsi.o)
 .ARM.attributes
                0x00000c7e       0x2c c:/program files (x86)/gnu tools arm embedded/4.8 2013q4/bin/../lib/gcc/arm-none-eabi/4.8.3/armv6-m\libgcc.a(bpabi.o)
 .ARM.attributes
                0x00000caa       0x2c c:/program files (x86)/gnu tools arm embedded/4.8 2013q4/bin/../lib/gcc/arm-none-eabi/4.8.3/armv6-m\libgcc.a(addsf3.o)
 .ARM.attributes
                0x00000cd6       0x2c c:/program files (x86)/gnu tools arm embedded/4.8 2013q4/bin/../lib/gcc/arm-none-eabi/4.8.3/armv6-m\libgcc.a(divsf3.o)
 .ARM.attributes
                0x00000d02       0x2c c:/program files (x86)/gnu tools arm embedded/4.8 2013q4/bin/../lib/gcc/arm-none-eabi/4.8.3/armv6-m\libgcc.a(eqsf2.o)
 .ARM.attributes
                0x00000d2e       0x2c c:/program files (x86)/gnu tools arm embedded/4.8 2013q4/bin/../lib/gcc/arm-none-eabi/4.8.3/armv6-m\libgcc.a(gesf2.o)
 .ARM.attributes
                0x00000d5a       0x2c c:/program files (x86)/gnu tools arm embedded/4.8 2013q4/bin/../lib/gcc/arm-none-eabi/4.8.3/armv6-m\libgcc.a(lesf2.o)
 .ARM.attributes
                0x00000d86       0x2c c:/program files (x86)/gnu tools arm embedded/4.8 2013q4/bin/../lib/gcc/arm-none-eabi/4.8.3/armv6-m\libgcc.a(mulsf3.o)
 .ARM.attributes
                0x00000db2       0x2c c:/program files (x86)/gnu tools arm embedded/4.8 2013q4/bin/../lib/gcc/arm-none-eabi/4.8.3/armv6-m\libgcc.a(subsf3.o)
 .ARM.attributes
                0x00000dde       0x2c c:/program files (x86)/gnu tools arm embedded/4.8 2013q4/bin/../lib/gcc/arm-none-eabi/4.8.3/armv6-m\libgcc.a(fixsfsi.o)
 .ARM.attributes
                0x00000e0a       0x2c c:/program files (x86)/gnu tools arm embedded/4.8 2013q4/bin/../lib/gcc/arm-none-eabi/4.8.3/armv6-m\libgcc.a(floatsisf.o)
 .ARM.attributes
                0x00000e36       0x2c c:/program files (x86)/gnu tools arm embedded/4.8 2013q4/bin/../lib/gcc/arm-none-eabi/4.8.3/armv6-m\libgcc.a(floatunsisf.o)
 .ARM.attributes
                0x00000e62       0x2c c:/program files (x86)/gnu tools arm embedded/4.8 2013q4/bin/../lib/gcc/arm-none-eabi/4.8.3/armv6-m\libgcc.a(extendsfdf2.o)
 .ARM.attributes
                0x00000e8e       0x2c c:/program files (x86)/gnu tools arm embedded/4.8 2013q4/bin/../lib/gcc/arm-none-eabi/4.8.3/armv6-m\libgcc.a(truncdfsf2.o)
 .ARM.attributes
                0x00000eba       0x1e c:/program files (x86)/gnu tools arm embedded/4.8 2013q4/bin/../lib/gcc/arm-none-eabi/4.8.3/armv6-m\libgcc.a(_clzsi2.o)
 .ARM.attributes
                0x00000ed8       0x2c c:/program files (x86)/gnu tools arm embedded/4.8 2013q4/bin/../lib/gcc/arm-none-eabi/4.8.3/armv6-m\libgcc.a(_divdi3.o)
 .ARM.attributes
                0x00000f04       0x2c c:/program files (x86)/gnu tools arm embedded/4.8 2013q4/bin/../lib/gcc/arm-none-eabi/4.8.3/armv6-m\libgcc.a(_udivdi3.o)
 .ARM.attributes
                0x00000f30       0x2c c:/program files (x86)/gnu tools arm embedded/4.8 2013q4/bin/../lib/gcc/arm-none-eabi/4.8.3/../../../../arm-none-eabi/lib/armv6-m\libg.a(lib_a-atoi.o)
 .ARM.attributes
                0x00000f5c       0x2c c:/program files (x86)/gnu tools arm embedded/4.8 2013q4/bin/../lib/gcc/arm-none-eabi/4.8.3/../../../../arm-none-eabi/lib/armv6-m\libg.a(lib_a-ctype_.o)
 .ARM.attributes
                0x00000f88       0x2c c:/program files (x86)/gnu tools arm embedded/4.8 2013q4/bin/../lib/gcc/arm-none-eabi/4.8.3/../../../../arm-none-eabi/lib/armv6-m\libg.a(lib_a-errno.o)
 .ARM.attributes
                0x00000fb4       0x2c c:/program files (x86)/gnu tools arm embedded/4.8 2013q4/bin/../lib/gcc/arm-none-eabi/4.8.3/../../../../arm-none-eabi/lib/armv6-m\libg.a(lib_a-impure.o)
 .ARM.attributes
                0x00000fe0       0x2c c:/program files (x86)/gnu tools arm embedded/4.8 2013q4/bin/../lib/gcc/arm-none-eabi/4.8.3/../../../../arm-none-eabi/lib/armv6-m\libg.a(lib_a-malloc.o)
 .ARM.attributes
                0x0000100c       0x2c c:/program files (x86)/gnu tools arm embedded/4.8 2013q4/bin/../lib/gcc/arm-none-eabi/4.8.3/../../../../arm-none-eabi/lib/armv6-m\libg.a(lib_a-mallocr.o)
 .ARM.attributes
                0x00001038       0x2c c:/program files (x86)/gnu tools arm embedded/4.8 2013q4/bin/../lib/gcc/arm-none-eabi/4.8.3/../../../../arm-none-eabi/lib/armv6-m\libg.a(lib_a-memcpy-stub.o)
 .ARM.attributes
                0x00001064       0x2c c:/program files (x86)/gnu tools arm embedded/4.8 2013q4/bin/../lib/gcc/arm-none-eabi/4.8.3/../../../../arm-none-eabi/lib/armv6-m\libg.a(lib_a-memset.o)
 .ARM.attributes
                0x00001090       0x2c c:/program files (x86)/gnu tools arm embedded/4.8 2013q4/bin/../lib/gcc/arm-none-eabi/4.8.3/../../../../arm-none-eabi/lib/armv6-m\libg.a(lib_a-mlock.o)
 .ARM.attributes
                0x000010bc       0x2c c:/program files (x86)/gnu tools arm embedded/4.8 2013q4/bin/../lib/gcc/arm-none-eabi/4.8.3/../../../../arm-none-eabi/lib/armv6-m\libg.a(lib_a-sbrkr.o)
 .ARM.attributes
                0x000010e8       0x2c c:/program files (x86)/gnu tools arm embedded/4.8 2013q4/bin/../lib/gcc/arm-none-eabi/4.8.3/../../../../arm-none-eabi/lib/armv6-m\libg.a(lib_a-strchr.o)
 .ARM.attributes
                0x00001114       0x1c c:/program files (x86)/gnu tools arm embedded/4.8 2013q4/bin/../lib/gcc/arm-none-eabi/4.8.3/../../../../arm-none-eabi/lib/armv6-m\libg.a(lib_a-strcmp.o)
 .ARM.attributes
                0x00001130       0x2c c:/program files (x86)/gnu tools arm embedded/4.8 2013q4/bin/../lib/gcc/arm-none-eabi/4.8.3/../../../../arm-none-eabi/lib/armv6-m\libg.a(lib_a-strlen.o)
 .ARM.attributes
                0x0000115c       0x2c c:/program files (x86)/gnu tools arm embedded/4.8 2013q4/bin/../lib/gcc/arm-none-eabi/4.8.3/../../../../arm-none-eabi/lib/armv6-m\libg.a(lib_a-strncmp.o)
 .ARM.attributes
                0x00001188       0x2c c:/program files (x86)/gnu tools arm embedded/4.8 2013q4/bin/../lib/gcc/arm-none-eabi/4.8.3/../../../../arm-none-eabi/lib/armv6-m\libg.a(lib_a-strncpy.o)
 .ARM.attributes
                0x000011b4       0x2c c:/program files (x86)/gnu tools arm embedded/4.8 2013q4/bin/../lib/gcc/arm-none-eabi/4.8.3/../../../../arm-none-eabi/lib/armv6-m\libg.a(lib_a-strtol.o)
 .ARM.attributes
                0x000011e0       0x2c c:/program files (x86)/gnu tools arm embedded/4.8 2013q4/bin/../lib/gcc/arm-none-eabi/4.8.3/../../../../arm-none-eabi/lib/armv6-m\libg.a(lib_a-strtoul.o)
 .ARM.attributes
                0x0000120c       0x2c c:/program files (x86)/gnu tools arm embedded/4.8 2013q4/bin/../lib/gcc/arm-none-eabi/4.8.3/../../../../arm-none-eabi/lib/armv6-m\libg.a(lib_a-freer.o)
 .ARM.attributes
                0x00001238       0x2c c:/program files (x86)/gnu tools arm embedded/4.8 2013q4/bin/../lib/gcc/arm-none-eabi/4.8.3/../../../../arm-none-eabi/lib/armv6-m\libg.a(lib_a-reent.o)

.debug_frame    0x00000000     0x5ec0
 .debug_frame   0x00000000      0x2c4 ..\obj\stm32f0xx_rcc.o
 .debug_frame   0x000002c4      0x22c ..\obj\pinpointer_hw.o
 .debug_frame   0x000004f0      0x200 ..\obj\stm32f0xx_adc.o
 .debug_frame   0x000006f0       0xb0 ..\obj\DAC.o
 .debug_frame   0x000007a0       0xe0 ..\obj\ACCELERO.o
 .debug_frame   0x00000880       0xf4 ..\obj\pp_conf_common.o
 .debug_frame   0x00000974      0x11c ..\obj\main.o
 .debug_frame   0x00000a90      0x5a8 ..\obj\pinpointer_config.o
 .debug_frame   0x00001038       0xb8 ..\obj\RCC.o
 .debug_frame   0x000010f0       0xb4 ..\obj\ShellCommand_radio.o
 .debug_frame   0x000011a4       0x50 ..\obj\utils.o
 .debug_frame   0x000011f4      0x1f8 ..\obj\module_api_seq.o
 .debug_frame   0x000013ec      0x100 ..\obj\GPIO.o
 .debug_frame   0x000014ec       0xc8 ..\obj\stm32f0xx_dma.o
 .debug_frame   0x000015b4      0x14c ..\obj\TIMER.o
 .debug_frame   0x00001700       0xa0 ..\obj\ADC.o
 .debug_frame   0x000017a0       0x4c ..\obj\Ext_Com.o
 .debug_frame   0x000017ec      0x224 ..\obj\printf.o
 .debug_frame   0x00001a10      0x664 ..\obj\module_api_radio.o
 .debug_frame   0x00002074       0x70 ..\obj\I2C.o
 .debug_frame   0x000020e4       0x2c ..\obj\prodSection_read.o
 .debug_frame   0x00002110      0x230 ..\obj\stm32f0xx_spi.o
 .debug_frame   0x00002340      0x23c ..\obj\msq_config.o
 .debug_frame   0x0000257c      0x130 ..\obj\uwbmodule_com_common.o
 .debug_frame   0x000026ac       0xd8 ..\obj\EXTI.o
 .debug_frame   0x00002784      0x108 ..\obj\stm32f0xx_gpio.o
 .debug_frame   0x0000288c      0xa6c ..\obj\module_api_sys.o
 .debug_frame   0x000032f8      0x480 ..\obj\stm32f0xx_rtc.o
 .debug_frame   0x00003778       0xa0 ..\obj\syscalls.o
 .debug_frame   0x00003818      0x354 ..\obj\stm32f0xx_usart.o
 .debug_frame   0x00003b6c      0x6d4 ..\obj\stm32f0xx_tim.o
 .debug_frame   0x00004240       0xe0 ..\obj\shell.o
 .debug_frame   0x00004320       0x54 ..\obj\system_stm32f0xx.o
 .debug_frame   0x00004374      0x194 ..\obj\SPI.o
 .debug_frame   0x00004508       0x94 ..\obj\osal_math.o
 .debug_frame   0x0000459c      0x114 ..\obj\osal_stdlib.o
 .debug_frame   0x000046b0       0x98 ..\obj\stm32f0xx_exti.o
 .debug_frame   0x00004748      0x43c ..\obj\ShellCommand_system.o
 .debug_frame   0x00004b84      0x1ac ..\obj\ShellCommand_misc.o
 .debug_frame   0x00004d30       0xd4 ..\obj\uwbmodule_com_specific.o
 .debug_frame   0x00004e04       0x98 ..\obj\stm32f0xx_syscfg.o
 .debug_frame   0x00004e9c      0x210 ..\obj\RTC.o
 .debug_frame   0x000050ac       0xe0 ..\obj\stm32f0xx_pwr.o
 .debug_frame   0x0000518c       0xe4 ..\obj\USART.o
 .debug_frame   0x00005270      0x190 ..\obj\osal_trace_STM32.o
 .debug_frame   0x00005400       0x4c ..\obj\stm32f0xx_misc.o
 .debug_frame   0x0000544c      0x140 ..\obj\stm32f0xx_dac.o
 .debug_frame   0x0000558c      0x110 ..\obj\osal_time.o
 .debug_frame   0x0000569c       0x30 c:/program files (x86)/gnu tools arm embedded/4.8 2013q4/bin/../lib/gcc/arm-none-eabi/4.8.3/../../../../arm-none-eabi/lib/armv6-m\libm.a(lib_a-wf_log10.o)
 .debug_frame   0x000056cc       0x2c c:/program files (x86)/gnu tools arm embedded/4.8 2013q4/bin/../lib/gcc/arm-none-eabi/4.8.3/../../../../arm-none-eabi/lib/armv6-m\libm.a(lib_a-ef_log10.o)
 .debug_frame   0x000056f8       0x20 c:/program files (x86)/gnu tools arm embedded/4.8 2013q4/bin/../lib/gcc/arm-none-eabi/4.8.3/../../../../arm-none-eabi/lib/armv6-m\libm.a(lib_a-s_matherr.o)
 .debug_frame   0x00005718       0x20 c:/program files (x86)/gnu tools arm embedded/4.8 2013q4/bin/../lib/gcc/arm-none-eabi/4.8.3/../../../../arm-none-eabi/lib/armv6-m\libm.a(lib_a-s_nan.o)
 .debug_frame   0x00005738       0x20 c:/program files (x86)/gnu tools arm embedded/4.8 2013q4/bin/../lib/gcc/arm-none-eabi/4.8.3/../../../../arm-none-eabi/lib/armv6-m\libm.a(lib_a-sf_fpclassify.o)
 .debug_frame   0x00005758       0x3c c:/program files (x86)/gnu tools arm embedded/4.8 2013q4/bin/../lib/gcc/arm-none-eabi/4.8.3/../../../../arm-none-eabi/lib/armv6-m\libm.a(lib_a-ef_log.o)
 .debug_frame   0x00005794       0x20 c:/program files (x86)/gnu tools arm embedded/4.8 2013q4/bin/../lib/gcc/arm-none-eabi/4.8.3/armv6-m\libgcc.a(_udivsi3.o)
 .debug_frame   0x000057b4       0x20 c:/program files (x86)/gnu tools arm embedded/4.8 2013q4/bin/../lib/gcc/arm-none-eabi/4.8.3/armv6-m\libgcc.a(_divsi3.o)
 .debug_frame   0x000057d4       0x30 c:/program files (x86)/gnu tools arm embedded/4.8 2013q4/bin/../lib/gcc/arm-none-eabi/4.8.3/armv6-m\libgcc.a(_muldi3.o)
 .debug_frame   0x00005804       0x28 c:/program files (x86)/gnu tools arm embedded/4.8 2013q4/bin/../lib/gcc/arm-none-eabi/4.8.3/armv6-m\libgcc.a(_fixunssfsi.o)
 .debug_frame   0x0000582c       0x50 c:/program files (x86)/gnu tools arm embedded/4.8 2013q4/bin/../lib/gcc/arm-none-eabi/4.8.3/armv6-m\libgcc.a(bpabi.o)
 .debug_frame   0x0000587c       0x30 c:/program files (x86)/gnu tools arm embedded/4.8 2013q4/bin/../lib/gcc/arm-none-eabi/4.8.3/armv6-m\libgcc.a(addsf3.o)
 .debug_frame   0x000058ac       0x3c c:/program files (x86)/gnu tools arm embedded/4.8 2013q4/bin/../lib/gcc/arm-none-eabi/4.8.3/armv6-m\libgcc.a(divsf3.o)
 .debug_frame   0x000058e8       0x2c c:/program files (x86)/gnu tools arm embedded/4.8 2013q4/bin/../lib/gcc/arm-none-eabi/4.8.3/armv6-m\libgcc.a(eqsf2.o)
 .debug_frame   0x00005914       0x30 c:/program files (x86)/gnu tools arm embedded/4.8 2013q4/bin/../lib/gcc/arm-none-eabi/4.8.3/armv6-m\libgcc.a(gesf2.o)
 .debug_frame   0x00005944       0x30 c:/program files (x86)/gnu tools arm embedded/4.8 2013q4/bin/../lib/gcc/arm-none-eabi/4.8.3/armv6-m\libgcc.a(lesf2.o)
 .debug_frame   0x00005974       0x3c c:/program files (x86)/gnu tools arm embedded/4.8 2013q4/bin/../lib/gcc/arm-none-eabi/4.8.3/armv6-m\libgcc.a(mulsf3.o)
 .debug_frame   0x000059b0       0x30 c:/program files (x86)/gnu tools arm embedded/4.8 2013q4/bin/../lib/gcc/arm-none-eabi/4.8.3/armv6-m\libgcc.a(subsf3.o)
 .debug_frame   0x000059e0       0x20 c:/program files (x86)/gnu tools arm embedded/4.8 2013q4/bin/../lib/gcc/arm-none-eabi/4.8.3/armv6-m\libgcc.a(fixsfsi.o)
 .debug_frame   0x00005a00       0x2c c:/program files (x86)/gnu tools arm embedded/4.8 2013q4/bin/../lib/gcc/arm-none-eabi/4.8.3/armv6-m\libgcc.a(floatsisf.o)
 .debug_frame   0x00005a2c       0x28 c:/program files (x86)/gnu tools arm embedded/4.8 2013q4/bin/../lib/gcc/arm-none-eabi/4.8.3/armv6-m\libgcc.a(floatunsisf.o)
 .debug_frame   0x00005a54       0x2c c:/program files (x86)/gnu tools arm embedded/4.8 2013q4/bin/../lib/gcc/arm-none-eabi/4.8.3/armv6-m\libgcc.a(extendsfdf2.o)
 .debug_frame   0x00005a80       0x30 c:/program files (x86)/gnu tools arm embedded/4.8 2013q4/bin/../lib/gcc/arm-none-eabi/4.8.3/armv6-m\libgcc.a(truncdfsf2.o)
 .debug_frame   0x00005ab0       0x3c c:/program files (x86)/gnu tools arm embedded/4.8 2013q4/bin/../lib/gcc/arm-none-eabi/4.8.3/armv6-m\libgcc.a(_divdi3.o)
 .debug_frame   0x00005aec       0x3c c:/program files (x86)/gnu tools arm embedded/4.8 2013q4/bin/../lib/gcc/arm-none-eabi/4.8.3/armv6-m\libgcc.a(_udivdi3.o)
 .debug_frame   0x00005b28       0x40 c:/program files (x86)/gnu tools arm embedded/4.8 2013q4/bin/../lib/gcc/arm-none-eabi/4.8.3/../../../../arm-none-eabi/lib/armv6-m\libg.a(lib_a-atoi.o)
 .debug_frame   0x00005b68       0x20 c:/program files (x86)/gnu tools arm embedded/4.8 2013q4/bin/../lib/gcc/arm-none-eabi/4.8.3/../../../../arm-none-eabi/lib/armv6-m\libg.a(lib_a-errno.o)
 .debug_frame   0x00005b88       0x40 c:/program files (x86)/gnu tools arm embedded/4.8 2013q4/bin/../lib/gcc/arm-none-eabi/4.8.3/../../../../arm-none-eabi/lib/armv6-m\libg.a(lib_a-malloc.o)
 .debug_frame   0x00005bc8       0x3c c:/program files (x86)/gnu tools arm embedded/4.8 2013q4/bin/../lib/gcc/arm-none-eabi/4.8.3/../../../../arm-none-eabi/lib/armv6-m\libg.a(lib_a-mallocr.o)
 .debug_frame   0x00005c04       0x30 c:/program files (x86)/gnu tools arm embedded/4.8 2013q4/bin/../lib/gcc/arm-none-eabi/4.8.3/../../../../arm-none-eabi/lib/armv6-m\libg.a(lib_a-memcpy-stub.o)
 .debug_frame   0x00005c34       0x38 c:/program files (x86)/gnu tools arm embedded/4.8 2013q4/bin/../lib/gcc/arm-none-eabi/4.8.3/../../../../arm-none-eabi/lib/armv6-m\libg.a(lib_a-memset.o)
 .debug_frame   0x00005c6c       0x30 c:/program files (x86)/gnu tools arm embedded/4.8 2013q4/bin/../lib/gcc/arm-none-eabi/4.8.3/../../../../arm-none-eabi/lib/armv6-m\libg.a(lib_a-mlock.o)
 .debug_frame   0x00005c9c       0x2c c:/program files (x86)/gnu tools arm embedded/4.8 2013q4/bin/../lib/gcc/arm-none-eabi/4.8.3/../../../../arm-none-eabi/lib/armv6-m\libg.a(lib_a-sbrkr.o)
 .debug_frame   0x00005cc8       0x30 c:/program files (x86)/gnu tools arm embedded/4.8 2013q4/bin/../lib/gcc/arm-none-eabi/4.8.3/../../../../arm-none-eabi/lib/armv6-m\libg.a(lib_a-strchr.o)
 .debug_frame   0x00005cf8       0x20 c:/program files (x86)/gnu tools arm embedded/4.8 2013q4/bin/../lib/gcc/arm-none-eabi/4.8.3/../../../../arm-none-eabi/lib/armv6-m\libg.a(lib_a-strlen.o)
 .debug_frame   0x00005d18       0x2c c:/program files (x86)/gnu tools arm embedded/4.8 2013q4/bin/../lib/gcc/arm-none-eabi/4.8.3/../../../../arm-none-eabi/lib/armv6-m\libg.a(lib_a-strncmp.o)
 .debug_frame   0x00005d44       0x30 c:/program files (x86)/gnu tools arm embedded/4.8 2013q4/bin/../lib/gcc/arm-none-eabi/4.8.3/../../../../arm-none-eabi/lib/armv6-m\libg.a(lib_a-strncpy.o)
 .debug_frame   0x00005d74       0x58 c:/program files (x86)/gnu tools arm embedded/4.8 2013q4/bin/../lib/gcc/arm-none-eabi/4.8.3/../../../../arm-none-eabi/lib/armv6-m\libg.a(lib_a-strtol.o)
 .debug_frame   0x00005dcc       0x58 c:/program files (x86)/gnu tools arm embedded/4.8 2013q4/bin/../lib/gcc/arm-none-eabi/4.8.3/../../../../arm-none-eabi/lib/armv6-m\libg.a(lib_a-strtoul.o)
 .debug_frame   0x00005e24       0x54 c:/program files (x86)/gnu tools arm embedded/4.8 2013q4/bin/../lib/gcc/arm-none-eabi/4.8.3/../../../../arm-none-eabi/lib/armv6-m\libg.a(lib_a-freer.o)
 .debug_frame   0x00005e78       0x48 c:/program files (x86)/gnu tools arm embedded/4.8 2013q4/bin/../lib/gcc/arm-none-eabi/4.8.3/../../../../arm-none-eabi/lib/armv6-m\libg.a(lib_a-reent.o)
